L251 LINKER/LOCATER V4.66.93.0                                                          01/04/2022  17:06:11  PAGE 1


L251 LINKER/LOCATER V4.66.93.0, INVOKED BY:
C:\KEIL_V5_C251\C251\BIN\L251.EXE .\obj\STARTUP251_RT569MP.obj, .\obj\main.obj, .\obj\rf_task_ctrl.obj, .\obj\intr_rf.ob
>> j, .\obj\sys_init.obj, .\obj\sys_task.obj, .\obj\isr_hdlr.obj, .\obj\sys_ctrl.obj, .\obj\sys_mem.obj, .\obj\sys_mem2.
>> obj, .\obj\sys_qctrl.obj, .\obj\sys_rtc.obj, .\obj\common_cmd_hdlr.obj, .\obj\common_event_gen.obj, .\obj\bmu.obj, .\
>> obj\bmu_cmd.obj, .\obj\bmu_common.obj, .\obj\bmu_rx.obj, .\obj\bmu_tx.obj, .\obj\bmu_ble.obj, .\obj\mac.obj, .\obj\ma
>> c_frame_parse.obj, .\obj\mac_isr.obj, .\obj\mac_cmd_hdlr.obj, .\obj\mac_task_ctrl.obj, .\obj\ruci_data_parse.obj, .\o
>> bj\mac_event_gen.obj, .\obj\mac_RaaSchedule.obj, .\obj\mac_TarSchedule.obj, .\obj\mac_cad.obj, .\obj\mac_scheduler.ob
>> j, .\obj\mac_RfeRx.obj, .\obj\mac_RfeTx.obj, .\obj\mac_DtmRx.obj, .\obj\mac_DtmTx.obj, .\obj\msg_ctrl.obj, .\obj\hal.
>> obj, .\obj\hal_cfg.obj, .\obj\hal_mac.obj, .\obj\hal_para.obj, .\obj\hal_phy.obj, .\obj\hal_pkt.obj, .\obj\hal_rf.obj
>> , .\obj\hal_rfdb.obj, .\obj\hal_sec.obj, .\obj\hal_rfk.obj, .\obj\hal_io.obj, .\obj\hal_init.obj, .\obj\hal_patch.obj
>> , .\obj\hal_prtcl.obj, .\obj\hal_rt569mp_init.obj, .\obj\rt569mp_mem.obj, .\obj\rt569mp_reg.obj, .\obj\hal_rt569mp_rf
>> k.obj, .\obj\hal_rt569mp_rf.obj, .\obj\hal_rt569mp_tcon.obj, .\obj\hal_rt569mp_para.obj, .\obj\Ruci.obj, .\obj\Ruci_P
>> ci15p4MacCmd.obj, .\obj\Ruci_PciBleCmd.obj, .\obj\Ruci_PciCommonCmd.obj, .\obj\Ruci_PciData.obj, .\obj\Ruci_PciEvent.
>> obj, .\obj\Ruci_PciFskCmd.obj, .\obj\Ruci_PciOqpskCmd.obj, .\obj\Ruci_PciSlinkCmd.obj, .\obj\Ruci_CmnEvent.obj, .\obj
>> \Ruci_CmnHalCmd.obj, .\obj\Ruci_CmnSysCmd.obj TO .\obj\RT569 NOOVERLAY CASE DISABLEWARNING (57, 16) CLASSES (DATA (0X
>> 0000-0X007F), IDATA (0X0080-0X0090), EDATA (0XA000-0XBFFF), CODE (0XFF0000-0XFFEFFF), ECODE (0XFFF000-0XFFFFFF), HCON
>> ST (0XFFF000-0XFFFFFF))


CPU MODE:     251 SOURCE MODE
INTR FRAME:   4 BYTES SAVED ON INTERRUPT
MEMORY MODEL: XTINY [HUGE PTR]


INPUT MODULES INCLUDED:
  .\obj\STARTUP251_RT569MP.obj (?C_START)
         COMMENT TYPE 0: A251 V4.69.13.0
  .\obj\main.obj (main)
         COMMENT TYPE 0: C251 V5.60.0
  .\obj\rf_task_ctrl.obj (rf_task_ctrl)
         COMMENT TYPE 0: C251 V5.60.0
  .\obj\intr_rf.obj (intr_rf)
         COMMENT TYPE 0: C251 V5.60.0
  .\obj\sys_init.obj (sys_init)
         COMMENT TYPE 0: C251 V5.60.0
  .\obj\sys_task.obj (sys_task)
         COMMENT TYPE 0: C251 V5.60.0
  .\obj\isr_hdlr.obj (isr_hdlr)
         COMMENT TYPE 0: C251 V5.60.0
  .\obj\sys_ctrl.obj (sys_ctrl)
         COMMENT TYPE 0: C251 V5.60.0
  .\obj\sys_mem.obj (SYS_MEM)
         COMMENT TYPE 0: A251 V4.69.13.0
  .\obj\sys_mem2.obj (SYS_MEM2)
         COMMENT TYPE 0: A251 V4.69.13.0
  .\obj\sys_qctrl.obj (sys_qctrl)
         COMMENT TYPE 0: C251 V5.60.0
  .\obj\sys_rtc.obj (sys_rtc)
         COMMENT TYPE 0: C251 V5.60.0
  .\obj\common_cmd_hdlr.obj (common_cmd_hdlr)
         COMMENT TYPE 0: C251 V5.60.0
  .\obj\common_event_gen.obj (common_event_gen)
         COMMENT TYPE 0: C251 V5.60.0
  .\obj\bmu.obj (bmu)
         COMMENT TYPE 0: C251 V5.60.0
  .\obj\bmu_cmd.obj (bmu_cmd)
         COMMENT TYPE 0: C251 V5.60.0
  .\obj\bmu_common.obj (bmu_common)
         COMMENT TYPE 0: C251 V5.60.0
  .\obj\bmu_rx.obj (bmu_rx)
         COMMENT TYPE 0: C251 V5.60.0
  .\obj\bmu_tx.obj (bmu_tx)
         COMMENT TYPE 0: C251 V5.60.0
  .\obj\bmu_ble.obj (bmu_ble)
         COMMENT TYPE 0: C251 V5.60.0
  .\obj\mac.obj (mac)
L251 LINKER/LOCATER V4.66.93.0                                                        01/04/2022  17:06:11  PAGE 2


         COMMENT TYPE 0: C251 V5.60.0
  .\obj\mac_frame_parse.obj (mac_frame_parse)
         COMMENT TYPE 0: C251 V5.60.0
  .\obj\mac_isr.obj (mac_isr)
         COMMENT TYPE 0: C251 V5.60.0
  .\obj\mac_cmd_hdlr.obj (mac_cmd_hdlr)
         COMMENT TYPE 0: C251 V5.60.0
  .\obj\mac_task_ctrl.obj (mac_task_ctrl)
         COMMENT TYPE 0: C251 V5.60.0
  .\obj\ruci_data_parse.obj (ruci_data_parse)
         COMMENT TYPE 0: C251 V5.60.0
  .\obj\mac_event_gen.obj (mac_event_gen)
         COMMENT TYPE 0: C251 V5.60.0
  .\obj\mac_RaaSchedule.obj (mac_RaaSchedule)
         COMMENT TYPE 0: C251 V5.60.0
  .\obj\mac_TarSchedule.obj (mac_TarSchedule)
         COMMENT TYPE 0: C251 V5.60.0
  .\obj\mac_cad.obj (mac_cad)
         COMMENT TYPE 0: C251 V5.60.0
  .\obj\mac_scheduler.obj (mac_scheduler)
         COMMENT TYPE 0: C251 V5.60.0
  .\obj\mac_RfeRx.obj (mac_RfeRx)
         COMMENT TYPE 0: C251 V5.60.0
  .\obj\mac_RfeTx.obj (mac_RfeTx)
         COMMENT TYPE 0: C251 V5.60.0
  .\obj\mac_DtmRx.obj (mac_DtmRx)
         COMMENT TYPE 0: C251 V5.60.0
  .\obj\mac_DtmTx.obj (mac_DtmTx)
         COMMENT TYPE 0: C251 V5.60.0
  .\obj\msg_ctrl.obj (msg_ctrl)
         COMMENT TYPE 0: C251 V5.60.0
  .\obj\hal.obj (hal)
         COMMENT TYPE 0: C251 V5.60.0
  .\obj\hal_cfg.obj (hal_cfg)
         COMMENT TYPE 0: C251 V5.60.0
  .\obj\hal_mac.obj (hal_mac)
         COMMENT TYPE 0: C251 V5.60.0
  .\obj\hal_para.obj (hal_para)
         COMMENT TYPE 0: C251 V5.60.0
  .\obj\hal_phy.obj (hal_phy)
         COMMENT TYPE 0: C251 V5.60.0
  .\obj\hal_pkt.obj (hal_pkt)
         COMMENT TYPE 0: C251 V5.60.0
  .\obj\hal_rf.obj (hal_rf)
         COMMENT TYPE 0: C251 V5.60.0
  .\obj\hal_rfdb.obj (hal_rfdb)
         COMMENT TYPE 0: C251 V5.60.0
  .\obj\hal_sec.obj (hal_sec)
         COMMENT TYPE 0: C251 V5.60.0
  .\obj\hal_rfk.obj (hal_rfk)
         COMMENT TYPE 0: C251 V5.60.0
  .\obj\hal_io.obj (hal_io)
         COMMENT TYPE 0: C251 V5.60.0
  .\obj\hal_init.obj (hal_init)
         COMMENT TYPE 0: C251 V5.60.0
  .\obj\hal_patch.obj (hal_patch)
         COMMENT TYPE 0: C251 V5.60.0
  .\obj\hal_prtcl.obj (hal_prtcl)
         COMMENT TYPE 0: C251 V5.60.0
  .\obj\hal_rt569mp_init.obj (hal_rt569mp_init)
         COMMENT TYPE 0: C251 V5.60.0
  .\obj\rt569mp_mem.obj (rt569mp_mem)
         COMMENT TYPE 0: C251 V5.60.0
  .\obj\rt569mp_reg.obj (rt569mp_reg)
         COMMENT TYPE 0: C251 V5.60.0
L251 LINKER/LOCATER V4.66.93.0                                                        01/04/2022  17:06:11  PAGE 3


  .\obj\hal_rt569mp_rfk.obj (hal_rt569mp_rfk)
         COMMENT TYPE 0: C251 V5.60.0
  .\obj\hal_rt569mp_rf.obj (hal_rt569mp_rf)
         COMMENT TYPE 0: C251 V5.60.0
  .\obj\hal_rt569mp_tcon.obj (hal_rt569mp_tcon)
         COMMENT TYPE 0: C251 V5.60.0
  .\obj\hal_rt569mp_para.obj (hal_rt569mp_para)
         COMMENT TYPE 0: C251 V5.60.0
  .\obj\Ruci.obj (Ruci)
         COMMENT TYPE 0: C251 V5.60.0
  .\obj\Ruci_Pci15p4MacCmd.obj (Ruci_Pci15p4MacCmd)
         COMMENT TYPE 0: C251 V5.60.0
  .\obj\Ruci_PciBleCmd.obj (Ruci_PciBleCmd)
         COMMENT TYPE 0: C251 V5.60.0
  .\obj\Ruci_PciCommonCmd.obj (Ruci_PciCommonCmd)
         COMMENT TYPE 0: C251 V5.60.0
  .\obj\Ruci_PciData.obj (Ruci_PciData)
         COMMENT TYPE 0: C251 V5.60.0
  .\obj\Ruci_PciEvent.obj (Ruci_PciEvent)
         COMMENT TYPE 0: C251 V5.60.0
  .\obj\Ruci_PciFskCmd.obj (Ruci_PciFskCmd)
         COMMENT TYPE 0: C251 V5.60.0
  .\obj\Ruci_PciOqpskCmd.obj (Ruci_PciOqpskCmd)
         COMMENT TYPE 0: C251 V5.60.0
  .\obj\Ruci_PciSlinkCmd.obj (Ruci_PciSlinkCmd)
         COMMENT TYPE 0: C251 V5.60.0
  .\obj\Ruci_CmnEvent.obj (Ruci_CmnEvent)
         COMMENT TYPE 0: C251 V5.60.0
  .\obj\Ruci_CmnHalCmd.obj (Ruci_CmnHalCmd)
         COMMENT TYPE 0: C251 V5.60.0
  .\obj\Ruci_CmnSysCmd.obj (Ruci_CmnSysCmd)
         COMMENT TYPE 0: C251 V5.60.0
  C:\KEIL_V5_C251\C251\LIB\C2SXT.LIB (?C?INITEDATA)
         COMMENT TYPE 0: A251 V4.69.6.0
  C:\KEIL_V5_C251\C251\LIB\C2SXT.LIB (?C?LMUL)
         COMMENT TYPE 0: A251 V4.69.6.0
  C:\KEIL_V5_C251\C251\LIB\C2SXT.LIB (?C?ULDIV)
         COMMENT TYPE 0: A251 V4.69.6.0
  C:\KEIL_V5_C251\C251\LIB\C2SXT.LIB (hmemcpy)
         COMMENT TYPE 0: C251 V5.58.7
  C:\KEIL_V5_C251\C251\LIB\C2SXT.LIB (?C?INITEDATA_END)
         COMMENT TYPE 0: A251 V4.69.6.0


ACTIVE MEMORY CLASSES OF MODULE:  .\obj\RT569 (?C_START)

BASE        START       END         USED      MEMORY CLASS
==========================================================
000000H     000000H     00007FH     000010H   DATA
000000H     000080H     000090H               IDATA
000000H     00A000H     00BFFFH     00103EH   EDATA
FF0000H     FF0000H     FFEFFFH     008872H   CODE
000000H     FFF000H     FFFFFFH               ECODE
000000H     FFF000H     FFFFFFH     000F6AH   HCONST


MEMORY MAP OF MODULE:  .\obj\RT569 (?C_START)


START     STOP      LENGTH    ALIGN  RELOC    MEMORY CLASS   SEGMENT NAME
=========================================================================
000000H   000007H   000008H   ---    AT..     DATA           "REG BANK 0"
000008H   00000FH   000008H   ---    AT..     DATA           "REG BANK 1"
000010H   0000FFH   0000F0H   ---    ---      **GAP**
000100H   0003FFH   000300H   BYTE   AT..     EDATA          ?STACK
L251 LINKER/LOCATER V4.66.93.0                                                        01/04/2022  17:06:11  PAGE 4


000400H   009FFFH   009C00H   ---    ---      **GAP**
00A000H   00A88CH   00088DH   BYTE   UNIT     EDATA          ?ED?MAC_TARSCHEDULE
00A88DH   00AAA0H   000214H   BYTE   UNIT     EDATA          ?ED?SYS_QCTRL
00AAA1H   00AB50H   0000B0H   BYTE   UNIT     EDATA          ?ED?HAL_INIT
00AB51H   00AB90H   000040H   BYTE   UNIT     EDATA          ?ED?MAC_CMD_HDLR
00AB91H   00ABADH   00001DH   BYTE   UNIT     EDATA          ?ED?HALRFK_CALIBRATION?HAL_RFK
00ABAEH   00ABC7H   00001AH   BYTE   UNIT     EDATA          ?ED?MAC_RFERX
00ABC8H   00ABDCH   000015H   BYTE   UNIT     EDATA          ?ED?MAC
00ABDDH   00ABEFH   000013H   BYTE   UNIT     EDATA          ?ED?T2RTASK_SET?MAC_TASK_CTRL
00ABF0H   00AC01H   000012H   BYTE   UNIT     EDATA          ?ED?TXTASK_SET?MAC_TASK_CTRL
00AC02H   00AC13H   000012H   BYTE   UNIT     EDATA          ?ED?HALRF_FREQSUBGCFG?HAL_RT569MP_RF
00AC14H   00AC24H   000011H   BYTE   UNIT     EDATA          ?ED?MAC_RFETX
00AC25H   00AC35H   000011H   BYTE   UNIT     EDATA          ?ED?RUCI_ENDIANCONVERT?RUCI
00AC36H   00AC45H   000010H   BYTE   UNIT     EDATA          ?ED?MAC_RAASCHEDULE
00AC46H   00AC53H   00000EH   BYTE   UNIT     EDATA          ?ED?RXTASK_ALWAYSON_SET?MAC_TASK_CTRL
00AC54H   00AC61H   00000EH   BYTE   UNIT     EDATA          ?ED?RXTASK_TIMEOUT_SET?MAC_TASK_CTRL
00AC62H   00AC6FH   00000EH   BYTE   UNIT     EDATA          ?ED?TXRTCTASK_SET?MAC_TASK_CTRL
00AC70H   00AC7BH   00000CH   BYTE   UNIT     EDATA          ?ED?BMU_TRXQUEUEGET?BMU_COMMON
00AC7CH   00AC87H   00000CH   BYTE   UNIT     EDATA          ?ED?BMU_TRXQUEUESET?BMU_COMMON
00AC88H   00AC90H   000009H   BYTE   UNIT     EDATA          ?ED?HALPHY_RXBWSET?HAL_PHY
00AC91H   00AC99H   000009H   BYTE   UNIT     EDATA          ?ED?HALRFK_TXSBK?HAL_RT569MP_RFK
00AC9AH   00ACA1H   000008H   BYTE   UNIT     EDATA          ?ED?INTR_RF
00ACA2H   00ACA9H   000008H   BYTE   UNIT     EDATA          ?ED?SYS_RAND?SYS_CTRL
00ACAAH   00ACB1H   000008H   BYTE   UNIT     EDATA          ?ED?Q_QPUSHBACK?SYS_QCTRL
00ACB2H   00ACB8H   000007H   BYTE   UNIT     EDATA          ?ED?HALRF_FREQ2GCFG?HAL_RT569MP_RF
00ACB9H   00ACBEH   000006H   BYTE   UNIT     EDATA          ?ED?SYS_CTRL
00ACBFH   00ACC4H   000006H   BYTE   UNIT     EDATA          ?ED?Q_QPUSHFRONT?SYS_QCTRL
00ACC5H   00ACCAH   000006H   BYTE   UNIT     EDATA          ?ED?SYS_RTC
00ACCBH   00ACD0H   000006H   BYTE   UNIT     EDATA          ?ED?MAC_TXCONTROLFIELDPARSE?RUCI_DATA_PARSE
00ACD1H   00ACD6H   000006H   BYTE   UNIT     EDATA          ?ED?HALRFK_RXFILTK?HAL_RT569MP_RFK
00ACD7H   00ACDBH   000005H   BYTE   UNIT     EDATA          ?ED?SYS_TASK
00ACDCH   00ACE0H   000005H   BYTE   UNIT     EDATA          ?ED?MAC_CMDQUEUEPARSE?MAC_CMD_HDLR
00ACE1H   00ACE5H   000005H   BYTE   UNIT     EDATA          ?ED?PCIGETREGEVENTSENDTOMSGQUEUE?MAC_EVENT_GEN
00ACE6H   00ACEAH   000005H   BYTE   UNIT     EDATA          ?ED?MSG_CTRL
00ACEBH   00ACEEH   000004H   BYTE   UNIT     EDATA          ?ED?RTC_UDELAY?SYS_RTC
00ACEFH   00ACF2H   000004H   BYTE   UNIT     EDATA          ?ED?BMU_PRIVACYIRKSINGLESEARCH?BMU_BLE
00ACF3H   00ACF6H   000004H   BYTE   UNIT     EDATA          ?ED?MAC_ISRHANDLER?MAC_ISR
00ACF7H   00ACFAH   000004H   BYTE   UNIT     EDATA          ?ED?MAC_TASK_CTRL
00ACFBH   00ACFEH   000004H   BYTE   UNIT     EDATA          ?ED?MAC_SECLBHWSET?MAC_TARSCHEDULE
00ACFFH   00AD02H   000004H   BYTE   UNIT     EDATA          ?ED?MAC_CCASTART?MAC_TARSCHEDULE
00AD03H   00AD06H   000004H   BYTE   UNIT     EDATA          ?ED?MAC_RFETXSCHEDULE?MAC_RFETX
00AD07H   00AD0AH   000004H   BYTE   UNIT     EDATA          ?ED?HAL_HWMODEINIT?HAL
00AD0BH   00AD0EH   000004H   BYTE   UNIT     EDATA          ?ED?HALPHY_TXENABLE?HAL_PHY
00AD0FH   00AD12H   000004H   BYTE   UNIT     EDATA          ?ED?HALSEC_AESSET?HAL_SEC
00AD13H   00AD16H   000004H   BYTE   UNIT     EDATA          ?ED?HALRFK_KVALUEGET?HAL_RFK
00AD17H   00AD1AH   000004H   BYTE   UNIT     EDATA          ?ED?HAL_RT569MP_RFK
00AD1BH   00AD1EH   000004H   BYTE   UNIT     EDATA          ?ED?HALRFK_TXLOK?HAL_RT569MP_RFK
00AD1FH   00AD21H   000003H   BYTE   UNIT     EDATA          ?ED?Q_QCHAGETYPE?SYS_QCTRL
00AD22H   00AD24H   000003H   BYTE   UNIT     EDATA          ?ED?MAC_ACKSET?MAC_RAASCHEDULE
00AD25H   00AD27H   000003H   BYTE   UNIT     EDATA          ?ED?MAC_TXHWSET?MAC_TARSCHEDULE
00AD28H   00AD2AH   000003H   BYTE   UNIT     EDATA          ?ED?HALRFK_RINGPLLSET?HAL_RT569MP_RFK
00AD2BH   00AD2CH   000002H   BYTE   UNIT     EDATA          ?ED?BMU_COMMON
00AD2DH   00AD2EH   000002H   BYTE   UNIT     EDATA          ?ED?PCI_SETPHR?MAC_CMD_HDLR
00AD2FH   00AD30H   000002H   BYTE   UNIT     EDATA          ?ED?MAC_RFEDATAGEN?MAC_RFETX
00AD31H   00AD32H   000002H   BYTE   UNIT     EDATA          ?ED?MSG_INMSGPROC?MSG_CTRL
00AD33H   00AD34H   000002H   BYTE   UNIT     EDATA          ?ED?HALPHY_TXBWSET?HAL_PHY
00AD35H   00AD36H   000002H   BYTE   UNIT     EDATA          ?ED?HALTCON_INIT?HAL_RT569MP_TCON
00AD37H   00AD37H   000001H   BYTE   UNIT     EDATA          ?ED?BMU_H2MCMDGET?BMU_CMD
00AD38H   00AD38H   000001H   BYTE   UNIT     EDATA          ?ED?BMU_PRIVACYLOCALRPAGEN?BMU_BLE
00AD39H   00AD39H   000001H   BYTE   UNIT     EDATA          ?ED?PCI_SETCLOCKMODE?MAC_CMD_HDLR
00AD3AH   00AD3AH   000001H   BYTE   UNIT     EDATA          ?ED?PCI_SETRFFREQ?MAC_CMD_HDLR
00AD3BH   00AD3BH   000001H   BYTE   UNIT     EDATA          ?ED?MAC_BACKOFFTIMECAL?MAC_TARSCHEDULE
00AD3CH   00AD3CH   000001H   BYTE   UNIT     EDATA          ?ED?MAC_RFERXDATACONFIRM?MAC_RFERX
00AD3DH   00AD3DH   000001H   BYTE   UNIT     EDATA          ?ED?HALRFK_RSSIGET?HAL_RT569MP_RFK
00AD3EH   FEFFFFH   FE52C2H   ---    ---      **GAP**
L251 LINKER/LOCATER V4.66.93.0                                                        01/04/2022  17:06:11  PAGE 5


FF0000H   FF0002H   000003H   ---    OFFS..   CODE           ?CO?STARTUP251_RT569MP?4
FF0003H   FF0005H   000003H   ---    OFFS..   CODE           ?PR?IV?0
FF0006H   FF000AH   000005H   BYTE   INSEG    CODE           ?PR?INTR_ENABLE?INTR_RF
FF000BH   FF000DH   000003H   ---    OFFS..   CODE           ?PR?IV?1
FF000EH   FF0479H   00046CH   BYTE   INSEG    CODE           ?PR?MAC_TARSCHEDULE?MAC_TARSCHEDULE
FF047AH   FF08D4H   00045BH   BYTE   INSEG    CODE           ?PR?HALPHY_RXBWSET?HAL_PHY
FF08D5H   FF0D24H   000450H   BYTE   INSEG    CODE           ?PR?MAC_RFERXSCHEDULE?MAC_RFERX
FF0D25H   FF1038H   000314H   BYTE   INSEG    CODE           ?PR?HALPHY_TXBWSET?HAL_PHY
FF1039H   FF1261H   000229H   BYTE   INSEG    CODE           ?PR?MAC_FILTER?_?MAC_RAASCHEDULE
FF1262H   FF1481H   000220H   BYTE   INSEG    CODE           ?PR?HALRF_FREQSUBGCFG?HAL_RT569MP_RF
FF1482H   FF169EH   00021DH   BYTE   INSEG    CODE           ?PR?MAC_CMDQUEUEPARSE?MAC_CMD_HDLR
FF169FH   FF18B4H   000216H   BYTE   INSEG    CODE           ?PR?MAC_RFETXSCHEDULE?MAC_RFETX
FF18B5H   FF1A98H   0001E4H   BYTE   INSEG    CODE           ?PR?HALPHY_TXENABLE?HAL_PHY
FF1A99H   FF1C63H   0001CBH   BYTE   INSEG    CODE           ?PR?MAC_RAASCHEDULE?MAC_RAASCHEDULE
FF1C64H   FF1E15H   0001B2H   BYTE   INSEG    CODE           ?PR?HALPHY_PARASET?HAL_PHY
FF1E16H   FF1FC5H   0001B0H   BYTE   INSEG    CODE           ?PR?HAL_HWINIT?HAL_RT569MP_INIT
FF1FC6H   FF2152H   00018DH   BYTE   INSEG    CODE           ?PR?HAL_HWMODEINIT?HAL
FF2153H   FF22C8H   000176H   BYTE   INSEG    CODE           ?PR?T2RTASK_SET?MAC_TASK_CTRL
FF22C9H   FF243DH   000175H   BYTE   INSEG    CODE           ?PR?MAC_RAARXDONEHANDLE?_?MAC_RAASCHEDULE
FF243EH   FF25AEH   000171H   BYTE   INSEG    CODE           ?PR?MAC_TRXPAR_INIT?MAC
FF25AFH   FF2715H   000167H   BYTE   INSEG    CODE           ?PR?HALTCON_INIT?HAL_RT569MP_TCON
FF2716H   FF285AH   000145H   BYTE   INSEG    CODE           ?PR?HALRF_FREQ2GCFG?HAL_RT569MP_RF
FF285BH   FF298DH   000133H   BYTE   INSEG    CODE           ?PR?MAC_PARSEHDR?MAC_FRAME_PARSE
FF298EH   FF2AB9H   00012CH   BYTE   INSEG    CODE           ?PR?BMU_MEMALLOCATE?BMU
FF2ABAH   FF2BCDH   000114H   BYTE   INSEG    CODE           ?PR?MAC_TXCONTROLFIELDPARSE?RUCI_DATA_PARSE
FF2BCEH   FF2CDDH   000110H   BYTE   INSEG    CODE           ?PR?BMU_TRXQUEUEGET?BMU_COMMON
FF2CDEH   FF2DEDH   000110H   BYTE   INSEG    CODE           ?PR?BMU_TRXQUEUESET?BMU_COMMON
FF2DEEH   FF2EEFH   000102H   BYTE   INSEG    CODE           ?PR?MAC_ISRHANDLER?MAC_ISR
FF2EF0H   FF2FE4H   0000F5H   BYTE   INSEG    CODE           ?PR?TXTASK_SET?MAC_TASK_CTRL
FF2FE5H   FF30D9H   0000F5H   BYTE   INSEG    CODE           ?PR?HALRFK_RXENABLE?HAL_RT569MP_RFK
FF30DAH   FF31CBH   0000F2H   BYTE   INSEG    CODE           ?PR?INTR_RF_REGISTER?INTR_RF
FF31CCH   FF32BCH   0000F1H   BYTE   INSEG    CODE           ?PR?HALRFK_LBTRXENABLE?HAL_RT569MP_RFK
FF32BDH   FF33ACH   0000F0H   BYTE   INSEG    CODE           ?PR?HALRFK_RINGPLLSET?HAL_RT569MP_RFK
FF33ADH   FF3496H   0000EAH   BYTE   INSEG    CODE           ?PR?HALRFK_RXFILTK?HAL_RT569MP_RFK
FF3497H   FF357DH   0000E7H   BYTE   INSEG    CODE           ?PR?HALMAC_RXSFDSET?HAL_MAC
FF357EH   FF3664H   0000E7H   BYTE   INSEG    CODE           ?PR?RUCI_ENDIANCONVERT?RUCI
FF3665H   FF373DH   0000D9H   BYTE   INSEG    CODE           ?PR?SETRFIDLE?MAC_CMD_HDLR
FF373EH   FF3815H   0000D8H   BYTE   INSEG    CODE           ?PR?HALRFK_LBPATHENABLE?HAL_RT569MP_RFK
FF3816H   FF38E8H   0000D3H   BYTE   INSEG    CODE           ?PR?HALRF_AGCSET2HW?HAL_RT569MP_RF
FF38E9H   FF39B9H   0000D1H   BYTE   INSEG    CODE           ?PR?Q_QPUSHBACK?SYS_QCTRL
FF39BAH   FF3A87H   0000CEH   BYTE   INSEG    CODE           ?PR?HALRFK_TXSBK?HAL_RT569MP_RFK
FF3A88H   FF3B54H   0000CDH   BYTE   INSEG    CODE           ?PR?MAC_RFERXDATACONFIRM?MAC_RFERX
FF3B55H   FF3C1EH   0000CAH   BYTE   INSEG    CODE           ?PR?HALPHY_RXENABLE?HAL_PHY
FF3C1FH   FF3CE6H   0000C8H   BYTE   INSEG    CODE           ?PR?Q_QPUSHFRONT?SYS_QCTRL
FF3CE7H   FF3DAEH   0000C8H   BYTE   INSEG    CODE           ?PR?BMU_HWINIT?BMU
FF3DAFH   FF3E75H   0000C7H   BYTE   INSEG    CODE           ?PR?PCI_BLECMDSETBLEMODEM?MAC_CMD_HDLR
FF3E76H   FF3F3AH   0000C5H   BYTE   INSEG    CODE           ?PR?PCI_PARSECOMMONCMD?MAC_CMD_HDLR
FF3F3BH   FF3FFFH   0000C5H   BYTE   INSEG    CODE           ?PR?HALRFK_CALIBRATION?HAL_RFK
FF4000H   FF40C2H   0000C3H   BYTE   INSEG    CODE           ?PR?MAC_RXDONEEVENTGEN?_?MAC_RAASCHEDULE
FF40C3H   FF4185H   0000C3H   BYTE   INSEG    CODE           ?PR?HALRFK_PARABACKUP?HAL_RT569MP_RFK
FF4186H   FF4247H   0000C2H   BYTE   INSEG    CODE           ?PR?SYS_RAND?SYS_CTRL
FF4248H   FF4308H   0000C1H   BYTE   INSEG    CODE           ?PR?HAL_PARAINIT?HAL_INIT
FF4309H   FF43C6H   0000BEH   BYTE   INSEG    CODE           ?PR?PCI_SETRFERXENABLECMD?MAC_CMD_HDLR
FF43C7H   FF4483H   0000BDH   BYTE   INSEG    CODE           ?PR?PCI_RFETXPARACHECK?MAC_CMD_HDLR
FF4484H   FF4537H   0000B4H   BYTE   INSEG    CODE           ?PR?RF_TASK_SET?RF_TASK_CTRL
FF4538H   FF45EBH   0000B4H   BYTE   INSEG    CODE           ?PR?HALRFK_KVALUESET2HW?HAL_RFK
FF45ECH   FF4698H   0000ADH   BYTE   INSEG    CODE           ?PR?PCI_SETPHR?MAC_CMD_HDLR
FF4699H   FF473CH   0000A4H   BYTE   INSEG    CODE           ?PR?PCIGETPHYSTATUSEVENTSENDTOMSGQUEUE?MAC_EVENT_GEN
FF473DH   FF47DEH   0000A2H   BYTE   INSEG    CODE           ?PR?BMU_TXCONFIG?BMU_TX
FF47DFH   FF4880H   0000A2H   BYTE   INSEG    CODE           ?PR?BMU_PRIVACYLOCALRPAGEN?BMU_BLE
FF4881H   FF4921H   0000A1H   BYTE   INSEG    CODE           ?PR?PCI_SETRFETXENABLECMD?MAC_CMD_HDLR
FF4922H   FF49C0H   00009FH   BYTE   INSEG    CODE           ?PR?BMU_TXPKTLENGTHGET?BMU_TX
FF49C1H   FF4A5FH   00009FH   BYTE   INSEG    CODE           ?PR?MAC_RFETXPARINIT?MAC_RFETX
FF4A60H   FF4AFDH   00009EH   BYTE   INSEG    CODE           ?PR?HALRFK_PARARECOVER?HAL_RT569MP_RFK
FF4AFEH   FF4B99H   00009CH   BYTE   INSEG    CODE           ?PR?Q_QREMOVE?SYS_QCTRL
L251 LINKER/LOCATER V4.66.93.0                                                        01/04/2022  17:06:11  PAGE 6


FF4B9AH   FF4C35H   00009CH   BYTE   INSEG    CODE           ?PR?PCI_SETRFFREQ?MAC_CMD_HDLR
FF4C36H   FF4CCEH   000099H   BYTE   INSEG    CODE           ?PR?MAC_RFEDATAGEN?MAC_RFETX
FF4CCFH   FF4D65H   000097H   BYTE   INSEG    CODE           ?PR?CMN_GETFWVEREVENTSEND?COMMON_EVENT_GEN
FF4D66H   FF4DFAH   000095H   BYTE   INSEG    CODE           ?PR?BMU_TXQUEUECLEAR?BMU_TX
FF4DFBH   FF4E8CH   000092H   BYTE   INSEG    CODE           ?PR?HALSEC_AESSET?HAL_SEC
FF4E8DH   FF4F1CH   000090H   BYTE   INSEG    CODE           ?PR?BMU_RXCONFIG?BMU_RX
FF4F1DH   FF4FACH   000090H   BYTE   INSEG    CODE           ?PR?BMU_LOCALTXQUEUESET?BMU_TX
FF4FADH   FF503BH   00008FH   BYTE   INSEG    CODE           ?PR?HALMAC_RXPAYLOADLENGET?HAL_MAC
FF503CH   FF50CAH   00008FH   BYTE   INSEG    CODE           ?PR?HALRF_PLLCFG?HAL_RT569MP_RF
FF50CBH   FF5157H   00008DH   BYTE   INSEG    CODE           ?PR?BMU_HWRESET?BMU
FF5158H   FF51E2H   00008BH   BYTE   INSEG    CODE           ?PR?ISR_0_HDLR?ISR_HDLR
FF51E3H   FF526BH   000089H   BYTE   INSEG    CODE           ?PR?BMU_M2HCMDSET?BMU_CMD
FF526CH   FF52F4H   000089H   BYTE   INSEG    CODE           ?PR?PCI_BLECMDSETBLEMAC?MAC_CMD_HDLR
FF52F5H   FF537DH   000089H   BYTE   INSEG    CODE           ?PR?HALRFK_TXLOK?HAL_RT569MP_RFK
FF537EH   FF5405H   000088H   BYTE   INSEG    CODE           ?PR?PCIGETRSSIEVENTSENDTOMSGQUEUE?MAC_EVENT_GEN
FF5406H   FF5489H   000084H   BYTE   INSEG    CODE           ?PR?HALRFK_KVALUESET?HAL_RFK
FF548AH   FF550CH   000083H   BYTE   INSEG    CODE           ?PR?HALRFK_KVALUEGET?HAL_RFK
FF550DH   FF558DH   000081H   BYTE   INSEG    CODE           ?PR?BMU_PRIVACYIRKFULLSEARCH?BMU_BLE
FF558EH   FF560EH   000081H   BYTE   INSEG    CODE           ?PR?HALPHY_INPUTPWRGET?HAL_PHY
FF560FH   FF568EH   000080H   BYTE   INSEG    CODE           ?PR?Q_QMOVEBACK?SYS_QCTRL
FF568FH   FF570EH   000080H   BYTE   INSEG    CODE           ?PR?MAC_RXHWSET?MAC_TARSCHEDULE
FF570FH   FF578EH   000080H   BYTE   INSEG    CODE           ?PR?HALRFK_RXPATHENABLE?HAL_RT569MP_RFK
FF578FH   FF580DH   00007FH   BYTE   INSEG    CODE           ?PR?HALRFK_RXBWCFG?HAL_RT569MP_RFK
FF580EH   FF588BH   00007EH   BYTE   INSEG    CODE           ?PR?BMU_H2MCMDGET?BMU_CMD
FF588CH   FF5909H   00007EH   BYTE   INSEG    CODE           ?PR?MAC_CCASTATUSGET?MAC_TARSCHEDULE
FF590AH   FF5987H   00007EH   BYTE   INSEG    CODE           ?PR?HALRFK_RFPLLCFG?HAL_RT569MP_RFK
FF5988H   FF5A03H   00007CH   BYTE   INSEG    CODE           ?PR?BMU_LOCALRXQUEUEGET?BMU_RX
FF5A04H   FF5A7FH   00007CH   BYTE   INSEG    CODE           ?PR?MAC_TXDONEEVENTGEN?MAC_TARSCHEDULE
FF5A80H   FF5AFBH   00007CH   BYTE   INSEG    CODE           ?PR?HALRFK_RFTXCFG?HAL_RT569MP_RFK
FF5AFCH   FF5B76H   00007BH   BYTE   INSEG    CODE           ?PR?MAC_RFERXPARINIT?MAC_RFERX
FF5B77H   FF5BEFH   000079H   BYTE   INSEG    CODE           ?PR?HALMAC_TXTYPESET?HAL_MAC
FF5BF0H   FF5C66H   000077H   BYTE   INSEG    CODE           ?PR?BMU_PRIVACYIRKCLR?BMU_BLE
FF5C67H   FF5CDAH   000074H   BYTE   INSEG    CODE           ?PR?RTC_TIMERCONFIG?SYS_RTC
FF5CDBH   FF5D4DH   000073H   BYTE   INSEG    CODE           ?PR?RTC_INIT?SYS_RTC
FF5D4EH   FF5DC0H   000073H   BYTE   INSEG    CODE           ?PR?MAC_RFETXPKTLENUPDATE?MAC_RFETX
FF5DC1H   FF5E32H   000072H   BYTE   INSEG    CODE           ?PR?HALPHY_BLERXPARASET?HAL_PHY
FF5E33H   FF5EA3H   000071H   BYTE   INSEG    CODE           ?PR?Q_INIT?SYS_QCTRL
FF5EA4H   FF5F14H   000071H   BYTE   INSEG    CODE           ?PR?PCIGETREGEVENTSENDTOMSGQUEUE?MAC_EVENT_GEN
FF5F15H   FF5F84H   000070H   BYTE   INSEG    CODE           ?PR?BMU_LOCALRXQUEUESET?BMU_RX
FF5F85H   FF5FF4H   000070H   BYTE   INSEG    CODE           ?PR?HAL_PKTTYPESET?HAL
FF5FF5H   FF6061H   00006DH   BYTE   INSEG    CODE           ?PR?CMN_SETCALIBRATIONENABLEEVENTSEND?COMMON_EVENT_GEN
FF6062H   FF60CEH   00006DH   BYTE   INSEG    CODE           ?PR?MAC_SECLBHWSET?MAC_TARSCHEDULE
FF60CFH   FF613BH   00006DH   BYTE   INSEG    CODE           ?PR?HALTCON_PRETXTIMESET?HAL_RT569MP_TCON
FF613CH   FF61A7H   00006CH   BYTE   INSEG    CODE           ?PR?HALRFK_RSSIGET?HAL_RT569MP_RFK
FF61A8H   FF6210H   000069H   BYTE   INSEG    CODE           ?PR?BMU_RXQUEUEGET?BMU_RX
FF6211H   FF6279H   000069H   BYTE   INSEG    CODE           ?PR?BMU_TXQUEUEGET?BMU_TX
FF627AH   FF62E2H   000069H   BYTE   INSEG    CODE           ?PR?BMU_TXQUEUESET?BMU_TX
FF62E3H   FF634BH   000069H   BYTE   INSEG    CODE           ?PR?HALPHY_DFESET?HAL_PHY
FF634CH   FF63B3H   000068H   BYTE   INSEG    CODE           ?PR?PCI_INITZIGBEE?MAC_CMD_HDLR
FF63B4H   FF641BH   000068H   BYTE   INSEG    CODE           ?PR?MAC_TXHWSET?MAC_TARSCHEDULE
FF641CH   FF6482H   000067H   BYTE   INSEG    CODE           ?PR?SYS_SLEEP?SYS_CTRL
FF6483H   FF64E8H   000066H   BYTE   INSEG    CODE           ?PR?MSG_INMSGPROC?MSG_CTRL
FF64E9H   FF654DH   000065H   BYTE   INSEG    CODE           ?PR?PCIGETCRCEVENTSENDTOMSGQUEUE?MAC_EVENT_GEN
FF654EH   FF65B1H   000064H   BYTE   INSEG    CODE           ?PR?MAC_RFESECLBHWSET?MAC_RFERX
FF65B2H   FF6615H   000064H   BYTE   UNIT     CODE           ?C?LIB_CODE
FF6616H   FF6678H   000063H   BYTE   INSEG    CODE           ?PR?CMN_GETTEMPERATURERPTEVENTSEND?COMMON_EVENT_GEN
FF6679H   FF66DAH   000062H   BYTE   INSEG    CODE           ?PR?PCICNFEVENTSENDTOMSGQUEUE?MAC_EVENT_GEN
FF66DBH   FF673CH   000062H   BYTE   INSEG    CODE           ?PR?HALRFK_PLLFORFILTKSET?HAL_RT569MP_RFK
FF673DH   FF679DH   000061H   BYTE   INSEG    CODE           ?PR?CMN_GETVOLTAGERPTEVENTSEND?COMMON_EVENT_GEN
FF679EH   FF67FEH   000061H   BYTE   INSEG    CODE           ?PR?HALRFK_RFGAINCFG?HAL_RT569MP_RFK
FF67FFH   FF685EH   000060H   BYTE   INSEG    CODE           ?PR?CMD_CNFEVENTSEND?COMMON_EVENT_GEN
FF685FH   FF68BDH   00005FH   BYTE   UNIT     CODE           ?PR?ASM_MEMCPY??SYS_MEM2
FF68BEH   FF691BH   00005EH   BYTE   INSEG    CODE           ?PR?PCI_SETFSKMAC?MAC_CMD_HDLR
FF691CH   FF6979H   00005EH   BYTE   INSEG    CODE           ?PR?PCI_OQPSKCMDSETOQPSKMAC?MAC_CMD_HDLR
FF697AH   FF69D4H   00005BH   BYTE   INSEG    CODE           ?PR?PCI_SETRFBAUTOSTATE?MAC_CMD_HDLR
L251 LINKER/LOCATER V4.66.93.0                                                        01/04/2022  17:06:11  PAGE 7


FF69D5H   FF6A2FH   00005BH   BYTE   INSEG    CODE           ?PR?HALRF_IFCHECK?HAL_RT569MP_RF
FF6A30H   FF6A89H   00005AH   BYTE   INSEG    CODE           ?PR?RXTASK_TIMEOUT_SET?MAC_TASK_CTRL
FF6A8AH   FF6AE0H   000057H   BYTE   INSEG    CODE           ?PR?SYS_ENTERSLEEPCHECK?SYS_CTRL
FF6AE1H   FF6B35H   000055H   BYTE   INSEG    CODE           ?PR?MAC_CHECKBMUERR?MAC
FF6B36H   FF6B89H   000054H   BYTE   INSEG    CODE           ?PR?BMU_RXQUEUESET?BMU_RX
FF6B8AH   FF6BDCH   000053H   BYTE   INSEG    CODE           ?PR?MAC_CCASTART?MAC_TARSCHEDULE
FF6BDDH   FF6C2DH   000051H   BYTE   INSEG    CODE           ?PR?MAC_ACKSET?MAC_RAASCHEDULE
FF6C2EH   FF6C7EH   000051H   BYTE   INSEG    CODE           ?PR?MAC_RFERXDISABLE?MAC_RFERX
FF6C7FH   FF6CCEH   000050H   BYTE   INSEG    CODE           ?PR?MAC_RFETXHWSECSET?MAC_RFETX
FF6CCFH   FF6D1DH   00004FH   BYTE   INSEG    CODE           ?PR?PCIBURSTTXDONEEVENTSENDTOMSGQUEUE?MAC_EVENT_GEN
FF6D1EH   FF6D6BH   00004EH   BYTE   INSEG    CODE           ?PR?PCI_SETFSKSFD?MAC_CMD_HDLR
FF6D6CH   FF6DB7H   00004CH   BYTE   INSEG    CODE           ?PR?PCI_PARSE15P4ADDRESSFILTER?MAC_CMD_HDLR
FF6DB8H   FF6E03H   00004CH   BYTE   INSEG    CODE           ?PR?PCI_RFERXPARACHECK?MAC_CMD_HDLR
FF6E04H   FF6E4EH   00004BH   BYTE   INSEG    CODE           ?PR?PCIDATACONTROLFIELDPARSE?RUCI_DATA_PARSE
FF6E4FH   FF6E98H   00004AH   BYTE   INSEG    CODE           ?PR?PCI_SETRXTASKPARA?MAC_CMD_HDLR
FF6E99H   FF6EE1H   000049H   BYTE   INSEG    CODE           ?PR?SYS_ASSERT?SYS_CTRL
FF6EE2H   FF6F2AH   000049H   BYTE   INSEG    CODE           ?PR?CMN_CMDHAL_SETCALIBRATIONSETTING?COMMON_CMD_HDLR
FF6F2BH   FF6F73H   000049H   BYTE   INSEG    CODE           ?PR?MSG_HDLR?MSG_CTRL
FF6F74H   FF6FBBH   000048H   BYTE   INSEG    CODE           ?PR?SYS_INFOREGINIT?SYS_INIT
FF6FBCH   FF7002H   000047H   BYTE   INSEG    CODE           ?PR?BMU_FREQFLOWCTRLSET?BMU
FF7003H   FF7049H   000047H   BYTE   INSEG    CODE           ?PR?PCI_SETFSKMODEM?MAC_CMD_HDLR
FF704AH   FF708FH   000046H   BYTE   INSEG    CODE           ?PR?CMN_CMDHAL_SETAGC?COMMON_CMD_HDLR
FF7090H   FF70D5H   000046H   BYTE   INSEG    CODE           ?PR?MSG_ISR?_?MSG_CTRL
FF70D6H   FF711AH   000045H   BYTE   INSEG    CODE           ?PR?HALPKT_RXQDONESET?HAL_PKT
FF711BH   FF715EH   000044H   BYTE   INSEG    CODE           ?PR?RF_TASK_LOOPBACKSEL?RF_TASK_CTRL
FF715FH   FF71A2H   000044H   BYTE   INSEG    CODE           ?PR?MAC_RFETXTASKSET?MAC_RFETX
FF71A3H   FF71E6H   000044H   BYTE   INSEG    CODE           ?PR?HALPHY_FSKRXPARASET?HAL_PHY
FF71E7H   FF71FDH   000017H   BYTE   UNIT     CODE           ?C_C51STARTUP
FF71FEH   FF7226H   000029H   BYTE   UNIT     CODE           ?C_C51STARTUP?2
FF7227H   FF7229H   000003H   BYTE   UNIT     CODE           ?C_C51STARTUP?3
FF722AH   FF726CH   000043H   BYTE   INSEG    CODE           ?PR?PCI_OQPSKCMDSETOQPSKMODEM?MAC_CMD_HDLR
FF726DH   FF72AFH   000043H   BYTE   INSEG    CODE           ?PR?HAL_CLKMODESET?HAL
FF72B0H   FF72F2H   000043H   BYTE   INSEG    CODE           ?PR?HALSEC_AESKEYSET?HAL_SEC
FF72F3H   FF7334H   000042H   BYTE   INSEG    CODE           ?PR?RF_TASK_ALLSTOP?RF_TASK_CTRL
FF7335H   FF7375H   000041H   BYTE   UNIT     CODE           ?PR?ASM_MEMSET??SYS_MEM
FF7376H   FF73B6H   000041H   BYTE   INSEG    CODE           ?PR?PCI_SETCLOCKMODE?MAC_CMD_HDLR
FF73B7H   FF73F7H   000041H   BYTE   INSEG    CODE           ?PR?PCI_PARSE15P4MACPIB?MAC_CMD_HDLR
FF73F8H   FF7437H   000040H   BYTE   INSEG    CODE           ?PR?PCI_SETRFESECURITYCMD?MAC_CMD_HDLR
FF7438H   FF7477H   000040H   BYTE   INSEG    CODE           ?PR?HALMAC_CRCSET?HAL_MAC
FF7478H   FF74B6H   00003FH   BYTE   INSEG    CODE           ?PR?BMU_PRIVACYIRKSET?BMU_BLE
FF74B7H   FF74F4H   00003EH   BYTE   INSEG    CODE           ?PR?CMN_CMDHAL_SETTXPOWER?COMMON_CMD_HDLR
FF74F5H   FF7532H   00003EH   BYTE   INSEG    CODE           ?PR?MAC_FUNEVENTQGET?_?MAC
FF7533H   FF7570H   00003EH   BYTE   INSEG    CODE           ?PR?MAC_INTEVENTQGET?_?MAC
FF7571H   FF75ADH   00003DH   BYTE   INSEG    CODE           ?PR?HALPKT_PHYSTATUSGET?HAL_PKT
FF75AEH   FF75E9H   00003CH   BYTE   INSEG    CODE           ?PR?Q_QCHAGETYPE?SYS_QCTRL
FF75EAH   FF7625H   00003CH   BYTE   INSEG    CODE           ?PR?BMU_LOCALTXQUEUEGET?BMU_TX
FF7626H   FF7660H   00003BH   BYTE   INSEG    CODE           ?PR?RF_TASK_EN?RF_TASK_CTRL
FF7661H   FF769BH   00003BH   BYTE   INSEG    CODE           ?PR?HAL_DFTPARAGET?HAL_INIT
FF769CH   FF76D5H   00003AH   BYTE   INSEG    CODE           ?PR?BMU_PRIVACYIRKSINGLESEARCH?BMU_BLE
FF76D6H   FF770EH   000039H   BYTE   INSEG    CODE           ?PR?BMU_PRIVACYIRKGET?BMU_BLE
FF770FH   FF7747H   000039H   BYTE   INSEG    CODE           ?PR?PCI_PARSE15P4PHYPIB?MAC_CMD_HDLR
FF7748H   FF7780H   000039H   BYTE   INSEG    CODE           ?PR?MAC_BACKOFFTIMECAL?MAC_TARSCHEDULE
FF7781H   FF77B9H   000039H   BYTE   INSEG    CODE           ?PR?HALIO_DIOSET?HAL_IO
FF77BAH   FF77F1H   000038H   BYTE   INSEG    CODE           ?PR?BMU_TXQPKTSEARCH?BMU_TX
FF77F2H   FF7829H   000038H   BYTE   INSEG    CODE           ?PR?MAC_FUNEVENTQADD?_?MAC
FF782AH   FF7861H   000038H   BYTE   INSEG    CODE           ?PR?MAC_INTEVENTQADD?_?MAC
FF7862H   FF7899H   000038H   BYTE   INSEG    CODE           ?PR?HALPKT_TXQDONESET?HAL_PKT
FF789AH   FF78CFH   000036H   BYTE   INSEG    CODE           ?PR?RXTASK_ALWAYSON_SET?MAC_TASK_CTRL
FF78D0H   FF7905H   000036H   BYTE   INSEG    CODE           ?PR?HALRFK_PLLFORSIDEBANDKSET?HAL_RT569MP_RFK
FF7906H   FF793AH   000035H   BYTE   INSEG    CODE           ?PR?HALRFK_PLLFORLOKSET?HAL_RT569MP_RFK
FF793BH   FF796EH   000034H   BYTE   INSEG    CODE           ?PR?TXRTCTASK_SET?MAC_TASK_CTRL
FF796FH   FF79A1H   000033H   BYTE   INSEG    CODE           ?PR?PCI_PARSE15P4SWMACCMD?MAC_CMD_HDLR
FF79A2H   FF79D4H   000033H   BYTE   INSEG    CODE           ?PR?PCI_PARSECMNHALCMD?MAC_CMD_HDLR
FF79D5H   FF7A07H   000033H   BYTE   INSEG    CODE           ?PR?HAL_WATCHDOG?HAL
FF7A08H   FF7A3AH   000033H   BYTE   INSEG    CODE           ?PR?HALSEC_AESLEVELONLYSET?HAL_SEC
L251 LINKER/LOCATER V4.66.93.0                                                        01/04/2022  17:06:11  PAGE 8


FF7A3BH   FF7A6CH   000032H   BYTE   INSEG    CODE           ?PR?HALRFK_ALLPATHDISABLE?HAL_RT569MP_RFK
FF7A6DH   FF7A9DH   000031H   BYTE   INSEG    CODE           ?PR?PCI_ENABLESINGLETONE?MAC_CMD_HDLR
FF7A9EH   FF7ACEH   000031H   BYTE   INSEG    CODE           ?PR?HALMAC_PKTBITENDIANSET?HAL_MAC
FF7ACFH   FF7AFEH   000030H   BYTE   INSEG    CODE           ?PR?MAC_SLEEPCHECK?MAC
FF7AFFH   FF7B2EH   000030H   BYTE   INSEG    CODE           ?PR?PCI_PARARESET?MAC_CMD_HDLR
FF7B2FH   FF7B5EH   000030H   BYTE   INSEG    CODE           ?PR?MAC_TXTASKSET?MAC_TARSCHEDULE
FF7B5FH   FF7B8DH   00002FH   BYTE   INSEG    CODE           ?PR?INTR_CLEAR?INTR_RF
FF7B8EH   FF7BBCH   00002FH   BYTE   INSEG    CODE           ?PR?SYS_TASK_REGISTER?SYS_TASK
FF7BBDH   FF7BEBH   00002FH   BYTE   INSEG    CODE           ?PR?MSG_OUTMSGPROC?MSG_CTRL
FF7BECH   FF7C1AH   00002FH   BYTE   INSEG    CODE           ?PR?HALSEC_AESKEYONLYSET?HAL_SEC
FF7C1BH   FF7C48H   00002EH   BYTE   INSEG    CODE           ?PR?SYS_TASK_RUN?SYS_TASK
FF7C49H   FF7C75H   00002DH   BYTE   INSEG    CODE           ?PR?SYS_INIT?SYS_INIT
FF7C76H   FF7CA2H   00002DH   BYTE   INSEG    CODE           ?PR?PCI_INITFSK?MAC_CMD_HDLR
FF7CA3H   FF7CCEH   00002CH   BYTE   INSEG    CODE           ?PR?SYS_TASK_BLOCK?SYS_TASK
FF7CCFH   FF7CF9H   00002BH   BYTE   INSEG    CODE           ?PR?PCI_PARSEFSKCMD?MAC_CMD_HDLR
FF7CFAH   FF7D24H   00002BH   BYTE   INSEG    CODE           ?PR?HALMAC_MAXPAYLOADLENGET?HAL_MAC
FF7D25H   FF7D4FH   00002BH   BYTE   INSEG    CODE           ?PR?HALRFK_RXPATHDISABLE?HAL_RT569MP_RFK
FF7D50H   FF7D79H   00002AH   BYTE   INSEG    CODE           ?PR?MSG_OUTMSGTOBMU?MSG_CTRL
FF7D7AH   FF7DA2H   000029H   BYTE   INSEG    CODE           ?PR?SYS_TASK_UNBLOCK?SYS_TASK
FF7DA3H   FF7DCBH   000029H   BYTE   INSEG    CODE           ?PR?BMU_TXQSTATUSRECOVERY?BMU_TX
FF7DCCH   FF7DF4H   000029H   BYTE   INSEG    CODE           ?PR?HALMAC_RXMAXPKTLENSET?HAL_MAC
FF7DF5H   FF7E1CH   000028H   BYTE   INSEG    CODE           ?PR?HALMAC_PHRSET?HAL_MAC
FF7E1DH   FF7E43H   000027H   BYTE   INSEG    CODE           ?PR?MAC?MAC
FF7E44H   FF7E6AH   000027H   BYTE   INSEG    CODE           ?PR?PCI_SETRFEMODE?MAC_CMD_HDLR
FF7E6BH   FF7E91H   000027H   BYTE   INSEG    CODE           ?PR?HALRFK_LBPATHDISABLE?HAL_RT569MP_RFK
FF7E92H   FF7EB8H   000027H   BYTE   INSEG    CODE           ?PR?HALRF_TXPWRSET2HW?HAL_RT569MP_RF
FF7EB9H   FF7EDEH   000026H   BYTE   INSEG    CODE           ?PR?RTC_TRIGGERWITHINUS?SYS_RTC
FF7EDFH   FF7F03H   000025H   BYTE   INSEG    CODE           ?PR?MAC_CHECKRXBUSY?MAC
FF7F04H   FF7F28H   000025H   BYTE   INSEG    CODE           ?PR?HALRF_TXPWRSET?HAL_RF
FF7F29H   FF7F4CH   000024H   BYTE   INSEG    CODE           ?PR?BMU_LOCALRXQSTARTADDGET?BMU_RX
FF7F4DH   FF7F70H   000024H   BYTE   INSEG    CODE           ?PR?BMU_RXQSTARTADDGET?BMU_RX
FF7F71H   FF7F94H   000024H   BYTE   INSEG    CODE           ?PR?BMU_LOCALTXQSTARTADDGET?BMU_TX
FF7F95H   FF7FB7H   000023H   BYTE   INSEG    CODE           ?PR?BMU_TXQSTARTADDGET?BMU_TX
FF7FB8H   FF7FDAH   000023H   BYTE   INSEG    CODE           ?PR?PCI_BLECMDINITBLE?MAC_CMD_HDLR
FF7FDBH   FF7FFDH   000023H   BYTE   INSEG    CODE           ?PR?HALMAC_WHITENSET?HAL_MAC
FF7FFEH   FF8020H   000023H   BYTE   INSEG    CODE           ?PR?HALSEC_AESTXSET?HAL_SEC
FF8021H   FF8042H   000022H   BYTE   INSEG    CODE           ?PR?HALMAC_TXSFDSET?HAL_MAC
FF8043H   FF8064H   000022H   BYTE   INSEG    CODE           ?PR?HALMAC_PHRLENCFGGET?HAL_MAC
FF8065H   FF8085H   000021H   BYTE   INSEG    CODE           ?PR?MAC_INIT?MAC
FF8086H   FF80A6H   000021H   BYTE   INSEG    CODE           ?PR?PCI_OQPSKCMDINITOQPSK?MAC_CMD_HDLR
FF80A7H   FF80C7H   000021H   BYTE   INSEG    CODE           ?PR?HALPHY_MODIDXSET?HAL_PHY
FF80C8H   FF80E6H   00001FH   BYTE   INSEG    CODE           ?PR?Q_MEMALLOC?SYS_QCTRL
FF80E7H   FF8105H   00001FH   BYTE   INSEG    CODE           ?PR?RTC_UDELAY?SYS_RTC
FF8106H   FF8124H   00001FH   BYTE   INSEG    CODE           ?PR?PCI_SETRFSLEEP?MAC_CMD_HDLR
FF8125H   FF8143H   00001FH   BYTE   INSEG    CODE           ?PR?HALPHY_RXDISABLE?HAL_PHY
FF8144H   FF8162H   00001FH   BYTE   INSEG    CODE           ?PR?HMEMCPY?_?HMEMCPY
FF8163H   FF8180H   00001EH   BYTE   INSEG    CODE           ?PR?PCI_SETFSKPREAMBLE?MAC_CMD_HDLR
FF8181H   FF819EH   00001EH   BYTE   INSEG    CODE           ?PR?HALRFK_LBTRXDISABLE?HAL_RT569MP_RFK
FF819FH   FF81BCH   00001EH   BYTE   INSEG    CODE           ?PR?HALRFK_RXDISABLE?HAL_RT569MP_RFK
FF81BDH   FF81D9H   00001DH   BYTE   INSEG    CODE           ?PR?Q_MEMGET?SYS_QCTRL
FF81DAH   FF81F6H   00001DH   BYTE   INSEG    CODE           ?PR?Q_QFREE?SYS_QCTRL
FF81F7H   FF8213H   00001DH   BYTE   INSEG    CODE           ?PR?MAC_FUNEVENTQINIT?MAC
FF8214H   FF8230H   00001DH   BYTE   INSEG    CODE           ?PR?MAC_INTEVENTQINIT?MAC
FF8231H   FF824DH   00001DH   BYTE   INSEG    CODE           ?PR?PCI_PARSEBLECMD?MAC_CMD_HDLR
FF824EH   FF826AH   00001DH   BYTE   INSEG    CODE           ?PR?PCI_PARSEOQPSKCMD?MAC_CMD_HDLR
FF826BH   FF8287H   00001DH   BYTE   INSEG    CODE           ?PR?HALRFK_SINGLETONEENABLE?HAL_RT569MP_RFK
FF8288H   FF82A3H   00001CH   BYTE   INSEG    CODE           ?PR?RTC_ISRHDLRINIT?SYS_RTC
FF82A4H   FF82BEH   00001BH   BYTE   INSEG    CODE           ?PR?PCI_SETRFERXDISABLECMD?MAC_CMD_HDLR
FF82BFH   FF82D8H   00001AH   BYTE   INSEG    CODE           ?PR?Q_MEMFREECOUNT?SYS_QCTRL
FF82D9H   FF82F1H   000019H   BYTE   INSEG    CODE           ?PR?HALMAC_TXPREAMBLESET?HAL_MAC
FF82F2H   FF830AH   000019H   BYTE   INSEG    CODE           ?PR?HALMAC_RXPREAMBLESET?HAL_MAC
FF830BH   FF8323H   000019H   BYTE   INSEG    CODE           ?PR?HALMAC_CRCLENCFGGET?HAL_MAC
FF8324H   FF833BH   000018H   BYTE   INSEG    CODE           ?PR?RTC_CLKGET?SYS_RTC
FF833CH   FF8353H   000018H   BYTE   INSEG    CODE           ?PR?CMDQUEUEPAYLOADPRINT?MAC_CMD_HDLR
FF8354H   FF836BH   000018H   BYTE   INSEG    CODE           ?PR?MAC_GENACK?MAC_RAASCHEDULE
L251 LINKER/LOCATER V4.66.93.0                                                        01/04/2022  17:06:11  PAGE 9


FF836CH   FF8382H   000017H   BYTE   INSEG    CODE           ?PR?BMU_TXQSTATUSUPD?BMU_TX
FF8383H   FF8399H   000017H   BYTE   INSEG    CODE           ?PR?MAC_ACKFRAMECHECK?MAC_TARSCHEDULE
FF839AH   FF83B0H   000017H   BYTE   INSEG    CODE           ?PR?MAC_RFERXRPTGET?MAC_RFERX
FF83B1H   FF83C7H   000017H   BYTE   INSEG    CODE           ?PR?HALMAC_CRCINITDFTGET?HAL_MAC
FF83C8H   FF83DEH   000017H   BYTE   INSEG    CODE           ?PR?HALMAC_SFDDFTGET?HAL_MAC
FF83DFH   FF83F5H   000017H   BYTE   INSEG    CODE           ?PR?HALRF_TEMPERATURERPTGET?HAL_RF
FF83F6H   FF840CH   000017H   BYTE   INSEG    CODE           ?PR?HALRF_VOLTAGERPTGET?HAL_RF
FF840DH   FF8422H   000016H   BYTE   INSEG    CODE           ?PR?SYS_ENTERSLEEPGUARD?SYS_CTRL
FF8423H   FF8438H   000016H   BYTE   INSEG    CODE           ?PR?Q_QGET?SYS_QCTRL
FF8439H   FF844EH   000016H   BYTE   INSEG    CODE           ?PR?Q_QLENGET?SYS_QCTRL
FF844FH   FF8464H   000016H   BYTE   INSEG    CODE           ?PR?PCIQUEUEGETANDMACINTQUEUEADD?MAC
FF8465H   FF847AH   000016H   BYTE   INSEG    CODE           ?PR?PCI_SETRFETXDISABLECMD?MAC_CMD_HDLR
FF847BH   FF8490H   000016H   BYTE   INSEG    CODE           ?PR?PCIDATACONTROLFIELDPRINT?RUCI_DATA_PARSE
FF8491H   FF84A6H   000016H   BYTE   INSEG    CODE           ?PR?MAC_TXSTART?MAC_TARSCHEDULE
FF84A7H   FF84BCH   000016H   BYTE   INSEG    CODE           ?PR?MSG_IDLE?MSG_CTRL
FF84BDH   FF84D1H   000015H   BYTE   INSEG    CODE           ?PR?MAC_INTEVENTQUEUEHANDLER?MAC
FF84D2H   FF84E6H   000015H   BYTE   INSEG    CODE           ?PR?HAL_ISWISUNHW?HAL
FF84E7H   FF84FBH   000015H   BYTE   INSEG    CODE           ?PR?HAL_ISZIGBEEHW?HAL
FF84FCH   FF8510H   000015H   BYTE   INSEG    CODE           ?PR?HAL_IS2GRF?HAL
FF8511H   FF8525H   000015H   BYTE   INSEG    CODE           ?PR?HALMAC_RXMHRRPTLENSET?HAL_MAC
FF8526H   FF853AH   000015H   BYTE   INSEG    CODE           ?PR?HALPHY_PREAMNUMSET?HAL_PHY
FF853BH   FF854EH   000014H   BYTE   INSEG    CODE           ?PR?RTC_ISRHDLR?SYS_RTC
FF854FH   FF8561H   000013H   BYTE   INSEG    CODE           ?PR?RTC_TIMERWAKEUPDISABLE?SYS_RTC
FF8562H   FF8574H   000013H   BYTE   INSEG    CODE           ?PR?MSG_HDLRINIT?MSG_CTRL
FF8575H   FF8587H   000013H   BYTE   INSEG    CODE           ?PR?HAL_ISBLEHW?HAL
FF8588H   FF859AH   000013H   BYTE   INSEG    CODE           ?PR?HAL_ISSUBGRF?HAL
FF859BH   FF85ADH   000013H   BYTE   INSEG    CODE           ?PR?HALRF_AGCSET?HAL_RF
FF85AEH   FF85BFH   000012H   BYTE   INSEG    CODE           ?PR?SYS_IDLE_TASK?SYS_CTRL
FF85C0H   FF85D1H   000012H   BYTE   INSEG    CODE           ?PR?MAC_CHECKISRRXRECEIVED?MAC
FF85D2H   FF85E3H   000012H   BYTE   INSEG    CODE           ?PR?PCI_SETRFIDLE?MAC_CMD_HDLR
FF85E4H   FF85F5H   000012H   BYTE   INSEG    CODE           ?PR?PCI_PARSE15P4AUTOACK?MAC_CMD_HDLR
FF85F6H   FF8607H   000012H   BYTE   INSEG    CODE           ?PR?PCI_PARSE15P4PENDINGBIT?MAC_CMD_HDLR
FF8608H   FF8619H   000012H   BYTE   INSEG    CODE           ?PR?MAC_RAACLEARACKQANDGENRXDATA?MAC_RAASCHEDULE
FF861AH   FF862BH   000012H   BYTE   INSEG    CODE           ?PR?MAC_TARPARINIT?MAC_TARSCHEDULE
FF862CH   FF863CH   000011H   BYTE   INSEG    CODE           ?PR?INTR_CLEARRTCGRP?INTR_RF
FF863DH   FF864DH   000011H   BYTE   INSEG    CODE           ?PR?ISR_CLEAR_MAC_STATUS?ISR_HDLR
FF864EH   FF865EH   000011H   BYTE   INSEG    CODE           ?PR?SYS_TIMERINIT?SYS_CTRL
FF865FH   FF866FH   000011H   BYTE   INSEG    CODE           ?PR?MSG_OUTMSGFORCEHANDLE?MSG_CTRL
FF8670H   FF8680H   000011H   BYTE   INSEG    CODE           ?PR?MSG_EVENTCLR?MSG_CTRL
FF8681H   FF8690H   000010H   BYTE   INSEG    CODE           ?PR?CMN_CMDHAL_SETCALIBRATIONENABLE?COMMON_CMD_HDLR
FF8691H   FF86A0H   000010H   BYTE   INSEG    CODE           ?PR?MAC_WAITFORRXTASKREADY?MAC_TARSCHEDULE
FF86A1H   FF86AFH   00000FH   BYTE   INSEG    CODE           ?PR?INTR_RF_HDLR?INTR_RF
FF86B0H   FF86BEH   00000FH   BYTE   INSEG    CODE           ?PR?ISR_GET_MAC_STATUS?ISR_HDLR
FF86BFH   FF86CDH   00000FH   BYTE   INSEG    CODE           ?PR?SYS_ISCLKAPASSOVERCLKB?SYS_CTRL
FF86CEH   FF86DCH   00000FH   BYTE   INSEG    CODE           ?PR?SYS_IDLETASKINIT?SYS_CTRL
FF86DDH   FF86EBH   00000FH   BYTE   INSEG    CODE           ?PR?MAC_FUNEVENTQUEUEEXIST?MAC
FF86ECH   FF86FAH   00000FH   BYTE   INSEG    CODE           ?PR?MAC_INTEVENTQUEUEEXIST?MAC
FF86FBH   FF8709H   00000FH   BYTE   INSEG    CODE           ?PR?PCI_PARSECMNSYSCMD?MAC_CMD_HDLR
FF870AH   FF8718H   00000FH   BYTE   INSEG    CODE           ?PR?MAC_RFERXAONTASKDISABLE?MAC_RFERX
FF8719H   FF8727H   00000FH   BYTE   INSEG    CODE           ?PR?HALRF_AGCINIT?HAL_RT569MP_RF
FF8728H   FF8735H   00000EH   BYTE   INSEG    CODE           ?PR?RXTASK_RXTIMER_SET?MAC_TASK_CTRL
FF8736H   FF8742H   00000DH   BYTE   INSEG    CODE           ?PR?SYS_IDLETASKINTINIT?SYS_CTRL
FF8743H   FF874FH   00000DH   BYTE   INSEG    CODE           ?PR?Q_MEMFREE?SYS_QCTRL
FF8750H   FF875CH   00000DH   BYTE   INSEG    CODE           ?PR?Q_QNUMGET?SYS_QCTRL
FF875DH   FF8769H   00000DH   BYTE   INSEG    CODE           ?PR?CMN_CMDSYS_GETRFBFWVER?COMMON_CMD_HDLR
FF876AH   FF8776H   00000DH   BYTE   INSEG    CODE           ?PR?CMN_CMDHAL_GETTEMPERATURERPT?COMMON_CMD_HDLR
FF8777H   FF8783H   00000DH   BYTE   INSEG    CODE           ?PR?CMN_CMDHAL_GETVOLTAGERPT?COMMON_CMD_HDLR
FF8784H   FF8790H   00000DH   BYTE   INSEG    CODE           ?PR?MAC_ISRINIT?MAC_ISR
FF8791H   FF879DH   00000DH   BYTE   INSEG    CODE           ?PR?PCI_GETCRCCOUNT?MAC_CMD_HDLR
FF879EH   FF87AAH   00000DH   BYTE   INSEG    CODE           ?PR?PCI_GETRSSI?MAC_CMD_HDLR
FF87ABH   FF87B7H   00000DH   BYTE   INSEG    CODE           ?PR?PCI_GETPHYSTATUS?MAC_CMD_HDLR
FF87B8H   FF87C4H   00000DH   BYTE   INSEG    CODE           ?PR?HAL_RFBANDGET?HAL
FF87C5H   FF87D1H   00000DH   BYTE   INSEG    CODE           ?PR?HALSEC_NONCEONLYSET?HAL_SEC
FF87D2H   FF87DEH   00000DH   BYTE   INSEG    CODE           ?PR?HALRFK_SINGLETONEDISABLE?HAL_RT569MP_RFK
FF87DFH   FF87EAH   00000CH   BYTE   INSEG    CODE           ?PR?MAC_BMUISRINIT?MAC_ISR
L251 LINKER/LOCATER V4.66.93.0                                                        01/04/2022  17:06:11  PAGE 10


FF87EBH   FF87F6H   00000CH   BYTE   INSEG    CODE           ?PR?HAL_CLKMODEGET?HAL
FF87F7H   FF8801H   00000BH   BYTE   INSEG    CODE           ?PR?MAC_TIMEOUTHDLR?MAC
FF8802H   FF880CH   00000BH   BYTE   INSEG    CODE           ?PR?MAC_FATALCLEAR?MAC
FF880DH   FF8817H   00000BH   BYTE   INSEG    CODE           ?PR?MAC_BMUISRHANDLER?MAC_ISR
FF8818H   FF8822H   00000BH   BYTE   INSEG    CODE           ?PR?MAC_MHRPARSE?MAC_TARSCHEDULE
FF8823H   FF882CH   00000AH   BYTE   INSEG    CODE           ?PR?RTC_WAITFORTRIGGERED?SYS_RTC
FF882DH   FF8835H   000009H   BYTE   INSEG    CODE           ?PR?MSG_OUTSTATESET?MSG_CTRL
FF8836H   FF883EH   000009H   BYTE   INSEG    CODE           ?PR?HALMAC_WHITENDFTGET?HAL_MAC
FF883FH   FF8847H   000009H   BYTE   INSEG    CODE           ?PR?HALMAC_WHITENINITDFTGET?HAL_MAC
FF8848H   FF8850H   000009H   BYTE   INSEG    CODE           ?PR?HALMAC_MAXPAYLOADDFTGET?HAL_MAC
FF8851H   FF8858H   000008H   BYTE   INSEG    CODE           ?PR?MAIN?MAIN
FF8859H   FF8860H   000008H   BYTE   INSEG    CODE           ?PR?HAL_HWMODEGET?HAL
FF8861H   FF8867H   000007H   BYTE   INSEG    CODE           ?PR?RTC_TICKGAPCOUNT?SYS_RTC
FF8868H   FF886AH   000003H   BYTE   INSEG    CODE           ?PR?ALLTASK_STOP?MAC_TASK_CTRL
FF886BH   FF886BH   000001H   BYTE   INSEG    CODE           ?PR?INTR_RF_NULLHDLR?INTR_RF
FF886CH   FF886CH   000001H   BYTE   INSEG    CODE           ?PR?SYS_NULL_TASK?SYS_TASK
FF886DH   FF886DH   000001H   BYTE   INSEG    CODE           ?PR?ISR_1_HDLR?ISR_HDLR
FF886EH   FF886EH   000001H   BYTE   INSEG    CODE           ?PR?RTC_NULLHDLR?SYS_RTC
FF886FH   FF886FH   000001H   BYTE   INSEG    CODE           ?PR?BMU_M2HCMDCLEAR?BMU_CMD
FF8870H   FF8870H   000001H   BYTE   INSEG    CODE           ?PR?HALRF_TEMPERATUREMEASURE?HAL_RT569MP_RF
FF8871H   FF8871H   000001H   BYTE   INSEG    CODE           ?PR?HALRF_VOLTAGEMEASURE?HAL_RT569MP_RF
FF8872H   FFEFFFH   00678EH   ---    ---      **GAP**
FFF000H   FFF648H   000649H   BYTE   UNIT     HCONST         ?HC?HAL_RT569MP_PARA
FFF649H   FFF987H   00033FH   BYTE   UNIT     HCONST         ?HC?HAL_PARA
FFF988H   FFFA8DH   000106H   BYTE   UNIT     HCONST         ?HC?MAC_RFETX
FFFA8EH   FFFB4FH   0000C2H   BYTE   UNIT     HCONST         ?HC?HAL_RT569MP_RF
FFFB50H   FFFBFEH   0000AFH   BYTE   UNIT     HCONST         ?HC?HAL_CFG
FFFBFFH   FFFCA8H   0000AAH   BYTE   UNIT     HCONST         ?HC?RUCI_PCICOMMONCMD
FFFCA9H   FFFD11H   000069H   BYTE   UNIT     HCONST         ?C_INITEDATA
FFFD12H   FFFD59H   000048H   BYTE   UNIT     HCONST         ?HC?RUCI_PCI15P4MACCMD
FFFD5AH   FFFD99H   000040H   BYTE   UNIT     HCONST         ?HC?RUCI_PCIEVENT
FFFD9AH   FFFDD5H   00003CH   BYTE   UNIT     HCONST         ?HC?RUCI_CMNEVENT
FFFDD6H   FFFE11H   00003CH   BYTE   UNIT     HCONST         ?HC?RUCI_CMNHALCMD
FFFE12H   FFFE4CH   00003BH   BYTE   UNIT     HCONST         ?HC?MAC_CMD_HDLR
FFFE4DH   FFFE84H   000038H   BYTE   UNIT     HCONST         ?HC?HAL_INIT
FFFE85H   FFFEB0H   00002CH   BYTE   UNIT     HCONST         ?HC?RUCI_PCIFSKCMD
FFFEB1H   FFFEDAH   00002AH   BYTE   UNIT     HCONST         ?HC?RUCI_PCISLINKCMD
FFFEDBH   FFFF00H   000026H   BYTE   UNIT     HCONST         ?HC?HAL_PRTCL
FFFF01H   FFFF20H   000020H   BYTE   UNIT     HCONST         ?HC?RUCI_PCIOQPSKCMD
FFFF21H   FFFF3EH   00001EH   BYTE   UNIT     HCONST         ?HC?RUCI_PCIBLECMD
FFFF3FH   FFFF54H   000016H   BYTE   UNIT     HCONST         ?HC?RUCI_PCIDATA
FFFF55H   FFFF5BH   000007H   BYTE   UNIT     HCONST         ?HC?BMU_COMMON
FFFF5CH   FFFF61H   000006H   BYTE   UNIT     HCONST         ?HC?RT569MP_MEM
FFFF62H   FFFF67H   000006H   BYTE   UNIT     HCONST         ?HC?RUCI_CMNSYSCMD
FFFF68H   FFFF69H   000002H   BYTE   UNIT     HCONST         ?HC?RT569MP_REG



PUBLIC SYMBOLS OF MODULE:  .\obj\RT569 (?C_START)


      VALUE       CLASS    TYPE      PUBLIC SYMBOL NAME
      =================================================
      000000FFH   NUMBER   ---       ?C?CODESEG
      00FF71FEH   CODE     ---       ?C?INITEDATA
      00FFFD10H   HCONST   WORD      ?C?INITEDATA_END
      00FF65B2H   CODE     ---       ?C?LMUL
      00FF0000H   CODE     ---       ?C?STARTUP
      00FF65C5H   CODE     NEAR LAB  ?C?ULDIV
      00FF65C3H   CODE     NEAR LAB  ?C?ULIDIV
      00000001H   NUMBER   ---       ?C?XDATASEG
      00FF0000H   CODE     ---       ?C_STARTUP
      0000AD1FH   EDATA    BYTE      ?HALRFK_RingPllSet?BYTE
      0000AD06H   EDATA    BYTE      ?HALSEC_AesSet?BYTE
      0000AC1EH   EDATA    BYTE      ?RUCI_endianConvert?BYTE
L251 LINKER/LOCATER V4.66.93.0                                                        01/04/2022  17:06:11  PAGE 11


      0000ABD6H   EDATA    BYTE      ?T2RTask_Set?BYTE
*SFR* 000000D0H.6 DATA     BIT       AC
*SFR* 000000E0H   DATA     BYTE      ACC
*SFR* 0000009DH   DATA     BYTE      ACON
      00FF8868H   CODE     ---       AllTask_Stop
      00FF685FH   CODE     ---       ASM_MEMCPY
      00FF7335H   CODE     ---       ASM_MEMSET
*SFR* 000000F0H   DATA     BYTE      B
      00FF6FBCH   CODE     ---       BMU_FreqFlowCtrlSet
      00FF580EH   CODE     ---       BMU_H2MCmdGet
      00FF3CE7H   CODE     ---       BMU_HwInit
      00FF50CBH   CODE     ---       BMU_HwReset
      00FF7F29H   CODE     ---       BMU_LocalRxqStartAddGet
      00FF5988H   CODE     ---       BMU_LocalRxQueueGet
      00FF5F15H   CODE     ---       BMU_LocalRxQueueSet
      00FF7F71H   CODE     ---       BMU_LocalTxqStartAddGet
      00FF75EAH   CODE     ---       BMU_LocalTxQueueGet
      00FF4F1DH   CODE     ---       BMU_LocalTxQueueSet
      00FF886FH   CODE     ---       BMU_M2HCmdClear
      00FF51E3H   CODE     ---       BMU_M2HCmdSet
      00FF298EH   CODE     ---       BMU_MemAllocate
      00FF5BF0H   CODE     ---       BMU_PrivacyIrkClr
      00FF550DH   CODE     ---       BMU_PrivacyIrkFullSearch
      00FF76D6H   CODE     ---       BMU_PrivacyIrkGet
      00FF7478H   CODE     ---       BMU_PrivacyIrkSet
      00FF769CH   CODE     ---       BMU_PrivacyIrkSingleSearch
      00FF47DFH   CODE     ---       BMU_PrivacyLocalRpaGen
      00FF4E8DH   CODE     ---       BMU_RxConfig
      00FF7F4DH   CODE     ---       BMU_RxqStartAddGet
      00FF61A8H   CODE     ---       BMU_RxQueueGet
      00FF6B36H   CODE     ---       BMU_RxQueueSet
      00FF2BCEH   CODE     ---       BMU_TrxQueueGet
      00FF2CDEH   CODE     ---       BMU_TrxQueueSet
      00FF473DH   CODE     ---       BMU_TxConfig
      00FF4922H   CODE     ---       BMU_TxPktLengthGet
      00FF77BAH   CODE     ---       BMU_TxqPktSearch
      00FF7F95H   CODE     ---       BMU_TxqStartAddGet
      00FF7DA3H   CODE     ---       BMU_TxqStatusRecovery
      00FF836CH   CODE     ---       BMU_TxqStatusUpd
      00FF4D66H   CODE     ---       BMU_TxQueueClear
      00FF6211H   CODE     ---       BMU_TxQueueGet
      00FF627AH   CODE     ---       BMU_TxQueueSet
      00FFFF55H   HCONST   ---       bmuMemSize
*SFR* 000000C8H.1 DATA     BIT       C_T2
*SFR* 000000CEH   DATA     BYTE      CCEN
*SFR* 000000D8H.0 DATA     BIT       CCF0
*SFR* 000000D8H.1 DATA     BIT       CCF1
*SFR* 000000D8H.2 DATA     BIT       CCF2
*SFR* 000000D8H.3 DATA     BIT       CCF3
*SFR* 000000D8H.4 DATA     BIT       CCF4
*SFR* 000000C3H   DATA     BYTE      CCH1
*SFR* 000000C5H   DATA     BYTE      CCH2
*SFR* 000000C7H   DATA     BYTE      CCH3
*SFR* 000000C2H   DATA     BYTE      CCL1
*SFR* 000000C4H   DATA     BYTE      CCL2
*SFR* 000000C6H   DATA     BYTE      CCL3
*SFR* 00000090H.3 DATA     BIT       CEX0
*SFR* 00000090H.4 DATA     BIT       CEX1
*SFR* 00000090H.5 DATA     BIT       CEX2
*SFR* 00000090H.6 DATA     BIT       CEX3
*SFR* 00000090H.7 DATA     BIT       CEX4
*SFR* 000000D8H.7 DATA     BIT       CF
*SFR* 0000008EH   DATA     BYTE      CKCON
      00FF67FFH   CODE     ---       CMD_CnfEventSend
      00FF833CH   CODE     ---       cmdQueuePayloadPrint
L251 LINKER/LOCATER V4.66.93.0                                                        01/04/2022  17:06:11  PAGE 12


      00FF876AH   CODE     ---       CMN_CmdHal_GetTemperatureRpt
      00FF8777H   CODE     ---       CMN_CmdHal_GetVoltageRpt
      00FF704AH   CODE     ---       CMN_CmdHal_SetAgc
      00FF8681H   CODE     ---       CMN_CmdHal_SetCalibrationEnable
      00FF6EE2H   CODE     ---       CMN_CmdHal_SetCalibrationSetting
      00FF74B7H   CODE     ---       CMN_CmdHal_SetTxpower
      00FF875DH   CODE     ---       CMN_CmdSys_GetRfbFwVer
      00FF4CCFH   CODE     ---       CMN_GetFwVerEventSend
      00FF6616H   CODE     ---       CMN_GetTemperatureRptEventSend
      00FF673DH   CODE     ---       CMN_GetVoltageRptEventSend
      00FF5FF5H   CODE     ---       CMN_SetCalibrationEnableEventSend
*SFR* 000000C8H.0 DATA     BIT       CP_RL2
*SFR* 000000D8H.7 DATA     BIT       CPUSRF
*SFR* 000000D8H.6 DATA     BIT       CR
*SFR* 000000CBH   DATA     BYTE      CRCH
*SFR* 000000CAH   DATA     BYTE      CRCL
*SFR* 000000D0H.7 DATA     BIT       CY
*SFR* 000000CFH   DATA     BYTE      DEVICR
*SFR* 0000008FH   DATA     BYTE      DMAIR
*SFR* 00000083H   DATA     BYTE      DPH
*SFR* 00000083H   DATA     BYTE      DPH1
*SFR* 00000082H   DATA     BYTE      DPL
*SFR* 00000082H   DATA     BYTE      DPL1
*SFR* 00000086H   DATA     BYTE      DPS
*SFR* 00000084H   DATA     BYTE      DPX1
*SFR* 00000084H   DATA     BYTE      DPXL
*SFR* 000000A8H.7 DATA     BIT       EA
*SFR* 000000A8H.6 DATA     BIT       EC
*SFR* 00000090H.2 DATA     BIT       ECI
*SFR* 000000E8H   DATA     BYTE      EIE
*SFR* 00000091H   DATA     BYTE      EIF
*SFR* 000000F8H   DATA     BYTE      EIP
*SFR* 000000B6H   DATA     BYTE      EIPH
*SFR* 000000B6H   DATA     BYTE      EIPH0
*SFR* 000000F8H   DATA     BYTE      EIPL
*SFR* 000000A8H.4 DATA     BIT       ES
*SFR* 000000A8H.4 DATA     BIT       ES0
*SFR* 000000A8H.6 DATA     BIT       ES1
*SFR* 000000A8H.1 DATA     BIT       ET0
*SFR* 000000A8H.3 DATA     BIT       ET1
*SFR* 000000A8H.5 DATA     BIT       ET2
*SFR* 000000D8H.1 DATA     BIT       EWT
*SFR* 000000A8H.0 DATA     BIT       EX0
*SFR* 000000A8H.2 DATA     BIT       EX1
*SFR* 000000C8H.3 DATA     BIT       EXEN2
*SFR* 000000C8H.6 DATA     BIT       EXF2
*SFR* 000000D0H.5 DATA     BIT       F0
*SFR* 00000098H.7 DATA     BIT       FE
      0000AB56H   EDATA    ---       g15p4Mac
      0000AB69H   EDATA    ---       g15p4Phy
      0000AB51H   EDATA    ---       g_cmdReadRegBuff
      0000A88CH   EDATA    BYTE      gBackoffExpIdx
      00FFFE47H   HCONST   ---       gCmnHalCmdLen
      00FFFE46H   HCONST   ---       gCmnSysCmdLen
      0000A88BH   EDATA    BYTE      gCsmacaRetry
      0000AC9AH   EDATA    ---       gIntrRfHdlrTable
      0000ACB9H   EDATA    DWORD     gLastWakeTick
      0000ACF7H   EDATA    DWORD     gMac_Frame_Pending_Rx_Time
      0000A04DH   EDATA    ---       gMacBuf
      0000ABC8H   EDATA    ---       gMacFunCtrl
      0000ABC9H   EDATA    ---       gMacFunEventQ
      0000A02AH   EDATA    ---       gMacHdr
      0000ABD3H   EDATA    ---       gMacIntEventQ
      0000AC38H   EDATA    ---       gMacPib
      0000AC36H   EDATA    INT       gMacRaaState
L251 LINKER/LOCATER V4.66.93.0                                                        01/04/2022  17:06:11  PAGE 13


      0000ABC0H   EDATA    ---       gMacRfeRpt
      0000ABB0H   EDATA    ---       gMacRfeRxCtrl
      0000ABAEH   EDATA    INT       gMacRfeRxState
      0000AC16H   EDATA    ---       gMacRfeTxCtrl
      0000AC14H   EDATA    INT       gMacRfeTxState
      0000A018H   EDATA    ---       gMacRxPar
      0000A000H   EDATA    INT       gMacTarState
      0000A002H   EDATA    ---       gMacTxPar
      00FFFE38H   HCONST   ---       gPci15p4MacCmdLen
      00FFFE35H   HCONST   ---       gPciBleCmdLen
      00FFFE12H   HCONST   ---       gPciCommonCmdLen
      00FFFE30H   HCONST   ---       gPciFskCmdLen
      00FFFE3EH   HCONST   ---       gPciOqpskCmdLen
      00FFFE42H   HCONST   ---       gPciSlinkCmdLen
      0000A885H   EDATA    ---       gPhyStatus
      0000A88AH   EDATA    BYTE      gRetransmissionCount
      0000AB55H   EDATA    BYTE      gSleepEnable
      0000ACBDH   EDATA    ---       gSysEntry_Sleep
      0000ACC5H   EDATA    ---       gSysRtcHdlrTable
      0000ACD7H   EDATA    BYTE      gTaskMask
      0000ACD8H   EDATA    ---       gTaskTable
      00FF87EBH   CODE     ---       HAL_ClkModeGet
      00FF726DH   CODE     ---       HAL_ClkModeSet
      00FF7661H   CODE     ---       HAL_DftParaGet
      00FF1E16H   CODE     ---       HAL_HwInit
      00FF8859H   CODE     ---       HAL_HwModeGet
      00FF1FC6H   CODE     ---       HAL_HwModeInit
      00FF84FCH   CODE     ---       HAL_Is2gRf
      00FF8575H   CODE     ---       HAL_IsBleHw
      00FF8588H   CODE     ---       HAL_IsSubgRf
      00FF84D2H   CODE     ---       HAL_IsWisunHw
      00FF84E7H   CODE     ---       HAL_IsZigbeeHw
      00FF4248H   CODE     ---       HAL_ParaInit
      00FF5F85H   CODE     ---       HAL_PktTypeSet
      00FF87B8H   CODE     ---       HAL_RfBandGet
      00FF79D5H   CODE     ---       HAL_Watchdog
      00FF7781H   CODE     ---       HALIO_dioSet
      00FF83B1H   CODE     ---       HALMAC_CrcInitDftGet
      00FF830BH   CODE     ---       HALMAC_CrcLenCfgGet
      00FF7438H   CODE     ---       HALMAC_CrcSet
      00FF8848H   CODE     ---       HALMAC_MaxPayloadDftGet
      00FF7CFAH   CODE     ---       HALMAC_MaxPayloadLenGet
      00FF8043H   CODE     ---       HALMAC_PhrLenCfgGet
      00FF7DF5H   CODE     ---       HALMAC_PhrSet
      00FF7A9EH   CODE     ---       HALMAC_PktBitEndianSet
      00FF7DCCH   CODE     ---       HALMAC_RxMaxPktLenSet
      00FF8511H   CODE     ---       HALMAC_RxMhrRptLenSet
      00FF4FADH   CODE     ---       HALMAC_RxPayloadLenGet
      00FF82F2H   CODE     ---       HALMAC_RxPreambleSet
      00FF3497H   CODE     ---       HALMAC_RxSfdSet
      00FF83C8H   CODE     ---       HALMAC_SfdDftGet
      00FF82D9H   CODE     ---       HALMAC_TxPreambleSet
      00FF8021H   CODE     ---       HALMAC_TxSfdSet
      00FF5B77H   CODE     ---       HALMAC_TxTypeSet
      00FF8836H   CODE     ---       HALMAC_WhitenDftGet
      00FF883FH   CODE     ---       HALMAC_WhitenInitDftGet
      00FF7FDBH   CODE     ---       HALMAC_WhitenSet
      00FF5DC1H   CODE     ---       HALPHY_BleRxParaSet
      00FF62E3H   CODE     ---       HALPHY_DfeSet
      00FF71A3H   CODE     ---       HALPHY_FskRxParaSet
      00FF558EH   CODE     ---       HALPHY_InputPwrGet
      00FF80A7H   CODE     ---       HALPHY_ModIdxSet
      00FF1C64H   CODE     ---       HALPHY_ParaSet
      00FF8526H   CODE     ---       HALPHY_PreamNumSet
      00FF047AH   CODE     ---       HALPHY_RxBwSet
L251 LINKER/LOCATER V4.66.93.0                                                        01/04/2022  17:06:11  PAGE 14


      00FF8125H   CODE     ---       HALPHY_RxDisable
      00FF3B55H   CODE     ---       HALPHY_RxEnable
      00FF0D25H   CODE     ---       HALPHY_TxBwSet
      00FF18B5H   CODE     ---       HALPHY_TxEnable
      00FF7571H   CODE     ---       HALPKT_PhyStatusGet
      00FF70D6H   CODE     ---       HALPKT_RxqDoneSet
      00FF7862H   CODE     ---       HALPKT_TxqDoneSet
      00FF8719H   CODE     ---       HALRF_AgcInit
      00FF859BH   CODE     ---       HALRF_AgcSet
      00FF3816H   CODE     ---       HALRF_AgcSet2Hw
      00FF2716H   CODE     ---       HALRF_Freq2gCfg
      00FF1262H   CODE     ---       HALRF_FreqSubgCfg
      00FF69D5H   CODE     ---       HALRF_IfCheck
      00FF503CH   CODE     ---       HALRF_PllCfg
      00FF8870H   CODE     ---       HALRF_TemperatureMeasure
      00FF83DFH   CODE     ---       HALRF_TemperatureRptGet
      00FF7F04H   CODE     ---       HALRF_TxPwrSet
      00FF7E92H   CODE     ---       HALRF_TxPwrSet2Hw
      00FF8871H   CODE     ---       HALRF_VoltageMeasure
      00FF83F6H   CODE     ---       HALRF_VoltageRptGet
      00FF7A3BH   CODE     ---       HALRFK_AllPathDisable
      00FF3F3BH   CODE     ---       HALRFK_Calibration
      00FF548AH   CODE     ---       HALRFK_kValueGet
      00FF5406H   CODE     ---       HALRFK_kValueSet
      00FF4538H   CODE     ---       HALRFK_kValueSet2Hw
      00FF7E6BH   CODE     ---       HALRFK_LbPathDisable
      00FF373EH   CODE     ---       HALRFK_LbPathEnable
      00FF8181H   CODE     ---       HALRFK_LbTrxDisable
      00FF31CCH   CODE     ---       HALRFK_LbTrxEnable
      00FF40C3H   CODE     ---       HALRFK_ParaBackUp
      00FF4A60H   CODE     ---       HALRFK_ParaRecover
      00FF66DBH   CODE     ---       HALRFK_PllForFiltKSet
      00FF7906H   CODE     ---       HALRFK_PllForLokSet
      00FF78D0H   CODE     ---       HALRFK_PllForSideBandKSet
      00FF679EH   CODE     ---       HALRFK_RfGainCfg
      00FF590AH   CODE     ---       HALRFK_RfPllCfg
      00FF5A80H   CODE     ---       HALRFK_RfTxCfg
      00FF32BDH   CODE     ---       HALRFK_RingPllSet
      00FF613CH   CODE     ---       HALRFK_RssiGet
      00FF578FH   CODE     ---       HALRFK_RxBwCfg
      00FF819FH   CODE     ---       HALRFK_RxDisable
      00FF2FE5H   CODE     ---       HALRFK_RxEnable
      00FF33ADH   CODE     ---       HALRFK_RxFiltK
      00FF7D25H   CODE     ---       HALRFK_RxPathDisable
      00FF570FH   CODE     ---       HALRFK_RxPathEnable
      00FF87D2H   CODE     ---       HALRFK_SingleToneDisable
      00FF826BH   CODE     ---       HALRFK_SingleToneEnable
      00FF52F5H   CODE     ---       HALRFK_TxLok
      00FF39BAH   CODE     ---       HALRFK_TxSbk
      00FF7BECH   CODE     ---       HALSEC_AesKeyOnlySet
      00FF72B0H   CODE     ---       HALSEC_AesKeySet
      00FF7A08H   CODE     ---       HALSEC_AesLevelOnlySet
      00FF4DFBH   CODE     ---       HALSEC_AesSet
      00FF7FFEH   CODE     ---       HALSEC_AesTxSet
      00FF87C5H   CODE     ---       HALSEC_NonceOnlySet
      00FF25AFH   CODE     ---       HALTCON_Init
      00FF60CFH   CODE     ---       HALTCON_PreTxTimeSet
      00FF8144H   CODE     ---       hmemcpy?_
*SFR* 000000F6H   DATA     BYTE      I2CM_BUF
*SFR* 000000F5H   DATA     BYTE      I2CM_CR
*SFR* 000000F4H   DATA     BYTE      I2CM_SA
*SFR* 000000F7H   DATA     BYTE      I2CM_TP
*SFR* 000000F1H   DATA     BYTE      I2CS_ADDR
*SFR* 000000F3H   DATA     BYTE      I2CS_BUF
*SFR* 000000F2H   DATA     BYTE      I2CS_CR
L251 LINKER/LOCATER V4.66.93.0                                                        01/04/2022  17:06:11  PAGE 15


*SFR* 000000C8H.5 DATA     BIT       I2FR
*SFR* 000000C8H.6 DATA     BIT       I3FR
*SFR* 000000A8H   DATA     BYTE      IE
*SFR* 00000088H.1 DATA     BIT       IE0
*SFR* 00000088H.1 DATA     BIT       IE0_
*SFR* 00000088H.3 DATA     BIT       IE1
*SFR* 00000088H.3 DATA     BIT       IE1_
*SFR* 000000B1H   DATA     BYTE      IEH
*SFR* 000000A8H   DATA     BYTE      IEL
*SFR* 000000B0H.2 DATA     BIT       INT0
*SFR* 000000B0H.3 DATA     BIT       INT1
      00FF7B5FH   CODE     ---       INTR_Clear
      00FF862CH   CODE     ---       INTR_ClearRtcGrp
      00FF0006H   CODE     ---       INTR_Enable
      00FF86A1H   CODE     ---       INTR_Rf_Hdlr
      00FF30DAH   CODE     ---       INTR_Rf_Register
*SFR* 000000B8H   DATA     BYTE      IP
*SFR* 000000B7H   DATA     BYTE      IPH
*SFR* 000000B7H   DATA     BYTE      IPH0
*SFR* 000000B8H   DATA     BYTE      IPL
*SFR* 000000B8H   DATA     BYTE      IPL0
      00FF5158H   CODE     ---       ISR_0_Hdlr
      00FF886DH   CODE     ---       ISR_1_Hdlr
      00FF863DH   CODE     ---       ISR_CLEAR_MAC_STATUS
      00FF86B0H   CODE     ---       ISR_GET_MAC_STATUS
*SFR* 00000088H.0 DATA     BIT       IT0
*SFR* 00000088H.2 DATA     BIT       IT1
      00FF7E1DH   CODE     ---       mac
      00FF8383H   CODE     ---       MAC_AckFrameCheck
      00FF6BDDH   CODE     ---       MAC_AckSet
      00FF7748H   CODE     ---       MAC_BackoffTimeCal
      00FF880DH   CODE     ---       mac_BmuIsrHandler
      00FF87DFH   CODE     ---       mac_BmuIsrInit
      00FF6B8AH   CODE     ---       MAC_CcaStart
      00FF588CH   CODE     ---       MAC_CcaStatusGet
      00FF6AE1H   CODE     ---       mac_CheckBmuErr
      00FF85C0H   CODE     ---       mac_CheckIsrRxReceived
      00FF7EDFH   CODE     ---       mac_CheckRxBusy
      00FF1482H   CODE     ---       MAC_CmdQueueParse
      00FF8802H   CODE     ---       mac_FatalClear
      00FF1039H   CODE     ---       mac_Filter?_
      00FF77F2H   CODE     ---       mac_FunEventQAdd?_
      00FF74F5H   CODE     ---       mac_FunEventQGet?_
      00FF81F7H   CODE     ---       mac_FunEventQInit
      00FF86DDH   CODE     ---       mac_FunEventQueueExist
      00FF8354H   CODE     ---       mac_genAck
      00FF8065H   CODE     ---       mac_Init
      00FF782AH   CODE     ---       mac_IntEventQAdd?_
      00FF7533H   CODE     ---       mac_IntEventQGet?_
      00FF8214H   CODE     ---       mac_IntEventQInit
      00FF86ECH   CODE     ---       mac_IntEventQueueExist
      00FF84BDH   CODE     ---       mac_IntEventQueueHandler
      00FF2DEEH   CODE     ---       mac_IsrHandler
      00FF8784H   CODE     ---       mac_IsrInit
      00FF8818H   CODE     ---       MAC_MhrParse
      00FF285BH   CODE     ---       mac_parseHdr
      00FF8608H   CODE     ---       Mac_RaaClearAckQandGenRxData
      00FF22C9H   CODE     ---       Mac_RaaRxDoneHandle?_
      00FF1A99H   CODE     ---       MAC_RaaSchedule
      00FF4C36H   CODE     ---       MAC_RfeDataGen
      00FF870AH   CODE     ---       MAC_RfeRxAonTaskDisable
      00FF3A88H   CODE     ---       MAC_RfeRxDataConfirm
      00FF6C2EH   CODE     ---       MAC_RfeRxDisable
      00FF5AFCH   CODE     ---       MAC_RfeRxParInit
      00FF839AH   CODE     ---       MAC_RfeRxRptGet
L251 LINKER/LOCATER V4.66.93.0                                                        01/04/2022  17:06:11  PAGE 16


      00FF08D5H   CODE     ---       MAC_RfeRxSchedule
      00FF654EH   CODE     ---       MAC_RfeSecLbHwSet
      00FF6C7FH   CODE     ---       MAC_RfeTxHwSecSet
      00FF49C1H   CODE     ---       MAC_RfeTxParInit
      00FF5D4EH   CODE     ---       MAC_RfeTxPktLenUpdate
      00FF169FH   CODE     ---       MAC_RfeTxSchedule
      00FF715FH   CODE     ---       MAC_RfeTxTaskSet
      00FF4000H   CODE     ---       MAC_RxDoneEventGen?_
      00FF568FH   CODE     ---       MAC_RxHwSet
      00FF6062H   CODE     ---       MAC_SecLbHwSet
      00FF7ACFH   CODE     ---       MAC_SleepCheck
      00FF861AH   CODE     ---       MAC_TarParInit
      00FF000EH   CODE     ---       MAC_TarSchedule
      00FF87F7H   CODE     ---       Mac_TimeoutHdlr
      00FF243EH   CODE     ---       mac_TrxPar_Init
      00FF2ABAH   CODE     ---       MAC_TxControlfieldParse
      00FF5A04H   CODE     ---       MAC_TxDoneEventGen
      00FF63B4H   CODE     ---       MAC_TxHwSet
      00FF8491H   CODE     ---       MAC_TxStart
      00FF7B2FH   CODE     ---       MAC_TxTaskSet
      00FF8691H   CODE     ---       MAC_WaitforRxTaskReady
      00FFF988H   HCONST   ---       MACRfeDataType
      00FFF98EH   HCONST   ---       MACRfePrbs9
      00FF8851H   CODE     ---       MAIN
      00FF8670H   CODE     ---       MSG_EventClr
      00FF6F2BH   CODE     ---       MSG_Hdlr
      00FF8562H   CODE     ---       MSG_HdlrInit
      00FF84A7H   CODE     ---       MSG_Idle
      00FF6483H   CODE     ---       MSG_InMsgProc
      00FF7090H   CODE     ---       MSG_Isr?_
      00FF865FH   CODE     ---       MSG_OutMsgForceHandle
      00FF7BBDH   CODE     ---       MSG_OutMsgProc
      00FF7D50H   CODE     ---       MSG_OutMsgToBmu
      00FF882DH   CODE     ---       MSG_OutStateSet
*SFR* 000000EAH   DATA     BYTE      MXAX
*SFR* 000000D1H.5 DATA     BIT       N_B
*SFR* 000000D0H.2 DATA     BIT       OV
*SFR* 000000D0H.0 DATA     BIT       P
*SFR* 00000080H   DATA     BYTE      P0
*SFR* 00000090H   DATA     BYTE      P1
*SFR* 000000A0H   DATA     BYTE      P2
*SFR* 000000B0H   DATA     BYTE      P3
      00FFFF68H   HCONST   ---       pBmuMacIntrSts
      00FF7FB8H   CODE     ---       Pci_BleCmdInitBle
      00FF526CH   CODE     ---       Pci_BleCmdSetBleMac
      00FF3DAFH   CODE     ---       Pci_BleCmdSetBleModem
      00FF7A6DH   CODE     ---       Pci_EnableSingleTone
      00FF8791H   CODE     ---       Pci_GetCrcCount
      00FF87ABH   CODE     ---       Pci_GetPhyStatus
      00FF879EH   CODE     ---       Pci_GetRssi
      00FF7C76H   CODE     ---       Pci_InitFsk
      00FF634CH   CODE     ---       Pci_InitZigbee
      00FF8086H   CODE     ---       Pci_OqpskCmdInitOqpsk
      00FF691CH   CODE     ---       Pci_OqpskCmdSetOqpskMac
      00FF722AH   CODE     ---       Pci_OqpskCmdSetOqpskModem
      00FF7AFFH   CODE     ---       Pci_ParaReset
      00FF6D6CH   CODE     ---       Pci_Parse15p4AddressFilter
      00FF85E4H   CODE     ---       Pci_Parse15p4AutoAck
      00FF73B7H   CODE     ---       Pci_Parse15p4MacPib
      00FF85F6H   CODE     ---       Pci_Parse15p4PendingBit
      00FF770FH   CODE     ---       Pci_Parse15p4PhyPib
      00FF796FH   CODE     ---       Pci_Parse15p4SwMacCmd
      00FF8231H   CODE     ---       Pci_ParseBleCmd
      00FF79A2H   CODE     ---       Pci_ParseCmnHalCmd
      00FF86FBH   CODE     ---       Pci_ParseCmnSysCmd
L251 LINKER/LOCATER V4.66.93.0                                                        01/04/2022  17:06:11  PAGE 17


      00FF3E76H   CODE     ---       Pci_ParseCommonCmd
      00FF7CCFH   CODE     ---       Pci_ParseFskCmd
      00FF824EH   CODE     ---       Pci_ParseOqpskCmd
      00FF6DB8H   CODE     ---       Pci_RfeRxParaCheck
      00FF43C7H   CODE     ---       Pci_RfeTxParaCheck
      00FF7376H   CODE     ---       Pci_SetClockMode
      00FF68BEH   CODE     ---       Pci_SetFskMac
      00FF7003H   CODE     ---       Pci_SetFskModem
      00FF8163H   CODE     ---       Pci_SetFskPreamble
      00FF6D1EH   CODE     ---       Pci_SetFskSfd
      00FF45ECH   CODE     ---       Pci_SetPhr
      00FF697AH   CODE     ---       Pci_SetRfbAutoState
      00FF7E44H   CODE     ---       Pci_SetRfeMode
      00FF82A4H   CODE     ---       Pci_SetRfeRxDisableCmd
      00FF4309H   CODE     ---       Pci_SetRfeRxEnableCmd
      00FF73F8H   CODE     ---       Pci_SetRfeSecurityCmd
      00FF8465H   CODE     ---       Pci_SetRfeTxDisableCmd
      00FF4881H   CODE     ---       Pci_SetRfeTxEnableCmd
      00FF4B9AH   CODE     ---       Pci_SetRfFreq
      00FF85D2H   CODE     ---       Pci_SetRfIdle
      00FF8106H   CODE     ---       Pci_SetRfSleep
      00FF6E4FH   CODE     ---       Pci_SetRxTaskPara
      00FF6CCFH   CODE     ---       PciBurstTxdoneEventSendtoMsgQueue
      00FF6679H   CODE     ---       PciCnfEventSendtoMsgQueue
      00FF6E04H   CODE     ---       PciDataControlFieldParse
      00FF847BH   CODE     ---       PciDataControlFieldPrint
      00FF64E9H   CODE     ---       PciGetCrcEventSendtoMsgQueue
      00FF4699H   CODE     ---       PciGetPhyStatusEventSendtoMsgQueue
      00FF5EA4H   CODE     ---       PciGetRegEventSendtoMsgQueue
      00FF537EH   CODE     ---       PciGetRssiEventSendtoMsgQueue
      00FF844FH   CODE     ---       pciQueueGetandMacIntQueueAdd
*SFR* 00000087H   DATA     BYTE      PCON
      0000AAC1H   EDATA    ---       pHalBmuMemSize
      0000AAA1H   EDATA    ---       pHalFwCfg
      0000AAA9H   EDATA    ---       pHalHwCfg
      0000AAC5H   EDATA    ---       pHalHwPara
      0000AAC9H   EDATA    ---       pHalHwTab
      0000AAADH   EDATA    ---       pHalMdmDefaultCfg
      0000AB23H   EDATA    ---       pHalPktCfg
      0000AAB9H   EDATA    ---       pHalPmuDefaultCfg2G
      0000AABDH   EDATA    ---       pHalPmuDefaultCfgSubG
      0000AB4DH   EDATA    ---       pHalPrtclCfg
      0000AAA5H   EDATA    ---       pHalRegPatch
      0000AAB1H   EDATA    ---       pHalRfDefaultCfg2G
      0000AAB5H   EDATA    ---       pHalRfDefaultCfgSubG
      00FFF569H   HCONST   ---       phyConfig
      00FFF649H   HCONST   ---       phyTabBpFir15Tap
      00FFF651H   HCONST   ---       phyTabBpFir31Tap
      00FFF661H   HCONST   ---       phyTabIfMap
      00FFF667H   HCONST   ---       phyTabIfMapDclk
      00FFFAA6H   HCONST   ---       pllDftBank
      00FFFA8EH   HCONST   ---       pllFreqBandTab
      00FFFF60H   HCONST   ---       pMemMapBmuLinkTable
      00FFFF5EH   HCONST   ---       pMemMapExtData
      00FFFF5CH   HCONST   ---       pMemMapSharedBuffer
      00FFF0D0H   HCONST   ---       pmuConfig
*SFR* 000000D8H.6 DATA     BIT       PORF
*SFR* 000000B8H.6 DATA     BIT       PPC
*SFR* 000000B8H.4 DATA     BIT       PS
*SFR* 000000B8H.4 DATA     BIT       PS0
*SFR* 000000B8H.6 DATA     BIT       PS1
*SFR* 000000D0H   DATA     BYTE      PSW
*SFR* 000000D1H   DATA     BYTE      PSW1
*SFR* 000000B8H.1 DATA     BIT       PT0
*SFR* 000000B8H.3 DATA     BIT       PT1
L251 LINKER/LOCATER V4.66.93.0                                                        01/04/2022  17:06:11  PAGE 18


*SFR* 000000B8H.5 DATA     BIT       PT2
*SFR* 000000B8H.0 DATA     BIT       PX0
*SFR* 000000B8H.2 DATA     BIT       PX1
      00FF5E33H   CODE     ---       Q_Init
      00FF80C8H   CODE     ---       Q_MemAlloc
      00FF8743H   CODE     ---       Q_MemFree
      00FF82BFH   CODE     ---       Q_MemFreeCount
      00FF81BDH   CODE     ---       Q_MemGet
      00FF75AEH   CODE     ---       Q_QChageType
      00FF81DAH   CODE     ---       Q_QFree
      00FF8423H   CODE     ---       Q_QGet
      00FF8439H   CODE     ---       Q_QLenGet
      00FF560FH   CODE     ---       Q_QMoveBack
      00FF8750H   CODE     ---       Q_QNumGet
      00FF38E9H   CODE     ---       Q_QPushBack
      00FF3C1FH   CODE     ---       Q_QPushFront
      00FF4AFEH   CODE     ---       Q_QRemove
*SFR* 00000098H.2 DATA     BIT       RB8
*SFR* 000000C0H.2 DATA     BIT       RB81
*SFR* 000000CBH   DATA     BYTE      RCAP2H
*SFR* 000000CAH   DATA     BYTE      RCAP2L
*SFR* 000000C8H.5 DATA     BIT       RCLK
*SFR* 000000B0H.7 DATA     BIT       RD
*SFR* 00000098H.4 DATA     BIT       REN
*SFR* 000000C0H.4 DATA     BIT       REN1
      00FF72F3H   CODE     ---       RF_Task_AllStop
      00FF7626H   CODE     ---       RF_Task_En
      00FF711BH   CODE     ---       RF_Task_LoopbackSel
      00FF4484H   CODE     ---       RF_Task_Set
      00FFF000H   HCONST   ---       rfConfig
      00FFF1B8H   HCONST   ---       rfTabSideBnadK
*SFR* 00000098H.0 DATA     BIT       RI
*SFR* 000000C0H.0 DATA     BIT       RI1
*SFR* 000000CBH   DATA     BYTE      RLDH
*SFR* 000000CAH   DATA     BYTE      RLDL
*SFR* 000000D0H.3 DATA     BIT       RS0
*SFR* 000000D0H.4 DATA     BIT       RS1
      00FF8324H   CODE     ---       RTC_ClkGet
      00FF5CDBH   CODE     ---       RTC_Init
      00FF853BH   CODE     ---       RTC_IsrHdlr
      00FF8288H   CODE     ---       RTC_IsrHdlrInit
      00FF8861H   CODE     ---       RTC_TickGapCount
      00FF5C67H   CODE     ---       RTC_TimerConfig
      00FF854FH   CODE     ---       RTC_TimerWakeUpDisable
      00FF7EB9H   CODE     ---       RTC_TriggerWithinUs
      00FF80E7H   CODE     ---       RTC_uDelay
      00FF8823H   CODE     ---       RTC_WaitForTriggered
*SFR* 000000D4H   DATA     BYTE      RTCCON
*SFR* 000000D7H   DATA     BYTE      RTCICR
*SFR* 000000D6H   DATA     BYTE      RTCREG
*SFR* 000000D5H   DATA     BYTE      RTCSEC
      00FFFDA0H   HCONST   ---       Ruci_ElmtNum_CmnCnfEvent
      00FFFD60H   HCONST   ---       Ruci_ElmtNum_CnfEvent
      00FFFD7BH   HCONST   ---       Ruci_ElmtNum_DtmBurstTxDoneEvent
      00FFFC1AH   HCONST   ---       Ruci_ElmtNum_GetCrcCount
      00FFFD73H   HCONST   ---       Ruci_ElmtNum_GetCrcReportEvent
      00FFFF65H   HCONST   ---       Ruci_ElmtNum_GetFwVer
      00FFFDADH   HCONST   ---       Ruci_ElmtNum_GetFwVerEvent
      00FFFC3EH   HCONST   ---       Ruci_ElmtNum_GetPhyStatus
      00FFFD90H   HCONST   ---       Ruci_ElmtNum_GetPhyStatusEvent
      00FFFD6AH   HCONST   ---       Ruci_ElmtNum_GetRegEvent
      00FFFC38H   HCONST   ---       Ruci_ElmtNum_GetRssi
      00FFFD82H   HCONST   ---       Ruci_ElmtNum_GetRssiEvent
      00FFFE09H   HCONST   ---       Ruci_ElmtNum_GetTemperatureRpt
      00FFFDC7H   HCONST   ---       Ruci_ElmtNum_GetTemperatureRptEvent
L251 LINKER/LOCATER V4.66.93.0                                                        01/04/2022  17:06:11  PAGE 19


      00FFFE0FH   HCONST   ---       Ruci_ElmtNum_GetVoltageRpt
      00FFFDD1H   HCONST   ---       Ruci_ElmtNum_GetVoltageRptEvent
      00FFFF24H   HCONST   ---       Ruci_ElmtNum_InitiateBle
      00FFFE89H   HCONST   ---       Ruci_ElmtNum_InitiateFsk
      00FFFF04H   HCONST   ---       Ruci_ElmtNum_InitiateOqpsk
      00FFFEB4H   HCONST   ---       Ruci_ElmtNum_InitiateSlink
      00FFFD15H   HCONST   ---       Ruci_ElmtNum_InitiateZigbee
      00FFFF4FH   HCONST   ---       Ruci_ElmtNum_RxControlField
      00FFFD20H   HCONST   ---       Ruci_ElmtNum_Set15p4AddressFilter
      00FFFD40H   HCONST   ---       Ruci_ElmtNum_Set15p4AutoAck
      00FFFD32H   HCONST   ---       Ruci_ElmtNum_Set15p4MacPib
      00FFFD56H   HCONST   ---       Ruci_ElmtNum_Set15p4PendingBit
      00FFFD4BH   HCONST   ---       Ruci_ElmtNum_Set15p4PhyPib
      00FFFDDDH   HCONST   ---       Ruci_ElmtNum_SetAgc
      00FFFF38H   HCONST   ---       Ruci_ElmtNum_SetBleMac
      00FFFF2CH   HCONST   ---       Ruci_ElmtNum_SetBleModem
      00FFFDE8H   HCONST   ---       Ruci_ElmtNum_SetCalibrationEnable
      00FFFDBBH   HCONST   ---       Ruci_ElmtNum_SetCalibrationEnableEvent
      00FFFDF4H   HCONST   ---       Ruci_ElmtNum_SetCalibrationSetting
      00FFFC47H   HCONST   ---       Ruci_ElmtNum_SetClockMode
      00FFFC30H   HCONST   ---       Ruci_ElmtNum_SetDutyCycle
      00FFFE9CH   HCONST   ---       Ruci_ElmtNum_SetFskMac
      00FFFE92H   HCONST   ---       Ruci_ElmtNum_SetFskModem
      00FFFEA5H   HCONST   ---       Ruci_ElmtNum_SetFskPreamble
      00FFFEADH   HCONST   ---       Ruci_ElmtNum_SetFskSfd
      00FFFF1DH   HCONST   ---       Ruci_ElmtNum_SetOqpskExtraPreamble
      00FFFF14H   HCONST   ---       Ruci_ElmtNum_SetOqpskMac
      00FFFF0BH   HCONST   ---       Ruci_ElmtNum_SetOqpskModem
      00FFFC51H   HCONST   ---       Ruci_ElmtNum_SetRfbAutoState
      00FFFCA5H   HCONST   ---       Ruci_ElmtNum_SetRfeMode
      00FFFC9EH   HCONST   ---       Ruci_ElmtNum_SetRfeRxDisable
      00FFFC8EH   HCONST   ---       Ruci_ElmtNum_SetRfeRxEnable
      00FFFC5AH   HCONST   ---       Ruci_ElmtNum_SetRfeSecurity
      00FFFC7EH   HCONST   ---       Ruci_ElmtNum_SetRfeTxDisable
      00FFFC6DH   HCONST   ---       Ruci_ElmtNum_SetRfeTxEnable
      00FFFC03H   HCONST   ---       Ruci_ElmtNum_SetRfFrequency
      00FFFC28H   HCONST   ---       Ruci_ElmtNum_SetRfIdle
      00FFFC21H   HCONST   ---       Ruci_ElmtNum_SetRfSleep
      00FFFC0BH   HCONST   ---       Ruci_ElmtNum_SetRxEnable
      00FFFC13H   HCONST   ---       Ruci_ElmtNum_SetSingleToneMode
      00FFFEC8H   HCONST   ---       Ruci_ElmtNum_SetSlinkCad
      00FFFED5H   HCONST   ---       Ruci_ElmtNum_SetSlinkCmnPara
      00FFFEBCH   HCONST   ---       Ruci_ElmtNum_SetSlinkModem
      00FFFF44H   HCONST   ---       Ruci_ElmtNum_SetTxControlField
      00FFFE01H   HCONST   ---       Ruci_ElmtNum_SetTxPower
      00FFFD9AH   HCONST   ---       Ruci_ElmtType_CmnCnfEvent
      00FFFD5AH   HCONST   ---       Ruci_ElmtType_CnfEvent
      00FFFD78H   HCONST   ---       Ruci_ElmtType_DtmBurstTxDoneEvent
      00FFFC17H   HCONST   ---       Ruci_ElmtType_GetCrcCount
      00FFFD6EH   HCONST   ---       Ruci_ElmtType_GetCrcReportEvent
      00FFFF62H   HCONST   ---       Ruci_ElmtType_GetFwVer
      00FFFDA6H   HCONST   ---       Ruci_ElmtType_GetFwVerEvent
      00FFFC3BH   HCONST   ---       Ruci_ElmtType_GetPhyStatus
      00FFFD86H   HCONST   ---       Ruci_ElmtType_GetPhyStatusEvent
      00FFFD66H   HCONST   ---       Ruci_ElmtType_GetRegEvent
      00FFFC35H   HCONST   ---       Ruci_ElmtType_GetRssi
      00FFFD7EH   HCONST   ---       Ruci_ElmtType_GetRssiEvent
      00FFFE06H   HCONST   ---       Ruci_ElmtType_GetTemperatureRpt
      00FFFDC2H   HCONST   ---       Ruci_ElmtType_GetTemperatureRptEvent
      00FFFE0CH   HCONST   ---       Ruci_ElmtType_GetVoltageRpt
      00FFFDCCH   HCONST   ---       Ruci_ElmtType_GetVoltageRptEvent
      00FFFF21H   HCONST   ---       Ruci_ElmtType_InitiateBle
      00FFFE85H   HCONST   ---       Ruci_ElmtType_InitiateFsk
      00FFFF01H   HCONST   ---       Ruci_ElmtType_InitiateOqpsk
      00FFFEB1H   HCONST   ---       Ruci_ElmtType_InitiateSlink
L251 LINKER/LOCATER V4.66.93.0                                                        01/04/2022  17:06:11  PAGE 20


      00FFFD12H   HCONST   ---       Ruci_ElmtType_InitiateZigbee
      00FFFF49H   HCONST   ---       Ruci_ElmtType_RxControlField
      00FFFD18H   HCONST   ---       Ruci_ElmtType_Set15p4AddressFilter
      00FFFD3CH   HCONST   ---       Ruci_ElmtType_Set15p4AutoAck
      00FFFD28H   HCONST   ---       Ruci_ElmtType_Set15p4MacPib
      00FFFD52H   HCONST   ---       Ruci_ElmtType_Set15p4PendingBit
      00FFFD44H   HCONST   ---       Ruci_ElmtType_Set15p4PhyPib
      00FFFDD6H   HCONST   ---       Ruci_ElmtType_SetAgc
      00FFFF31H   HCONST   ---       Ruci_ElmtType_SetBleMac
      00FFFF27H   HCONST   ---       Ruci_ElmtType_SetBleModem
      00FFFDE4H   HCONST   ---       Ruci_ElmtType_SetCalibrationEnable
      00FFFDB4H   HCONST   ---       Ruci_ElmtType_SetCalibrationEnableEvent
      00FFFDECH   HCONST   ---       Ruci_ElmtType_SetCalibrationSetting
      00FFFC41H   HCONST   ---       Ruci_ElmtType_SetClockMode
      00FFFC2BH   HCONST   ---       Ruci_ElmtType_SetDutyCycle
      00FFFE97H   HCONST   ---       Ruci_ElmtType_SetFskMac
      00FFFE8DH   HCONST   ---       Ruci_ElmtType_SetFskModem
      00FFFEA1H   HCONST   ---       Ruci_ElmtType_SetFskPreamble
      00FFFEA9H   HCONST   ---       Ruci_ElmtType_SetFskSfd
      00FFFF19H   HCONST   ---       Ruci_ElmtType_SetOqpskExtraPreamble
      00FFFF0FH   HCONST   ---       Ruci_ElmtType_SetOqpskMac
      00FFFF07H   HCONST   ---       Ruci_ElmtType_SetOqpskModem
      00FFFC4DH   HCONST   ---       Ruci_ElmtType_SetRfbAutoState
      00FFFCA1H   HCONST   ---       Ruci_ElmtType_SetRfeMode
      00FFFC9BH   HCONST   ---       Ruci_ElmtType_SetRfeRxDisable
      00FFFC81H   HCONST   ---       Ruci_ElmtType_SetRfeRxEnable
      00FFFC55H   HCONST   ---       Ruci_ElmtType_SetRfeSecurity
      00FFFC7BH   HCONST   ---       Ruci_ElmtType_SetRfeTxDisable
      00FFFC5FH   HCONST   ---       Ruci_ElmtType_SetRfeTxEnable
      00FFFBFFH   HCONST   ---       Ruci_ElmtType_SetRfFrequency
      00FFFC25H   HCONST   ---       Ruci_ElmtType_SetRfIdle
      00FFFC1DH   HCONST   ---       Ruci_ElmtType_SetRfSleep
      00FFFC07H   HCONST   ---       Ruci_ElmtType_SetRxEnable
      00FFFC0FH   HCONST   ---       Ruci_ElmtType_SetSingleToneMode
      00FFFEC1H   HCONST   ---       Ruci_ElmtType_SetSlinkCad
      00FFFECFH   HCONST   ---       Ruci_ElmtType_SetSlinkCmnPara
      00FFFEB7H   HCONST   ---       Ruci_ElmtType_SetSlinkModem
      00FFFF3FH   HCONST   ---       Ruci_ElmtType_SetTxControlField
      00FFFDFCH   HCONST   ---       Ruci_ElmtType_SetTxPower
      00FF357EH   CODE     ---       RUCI_endianConvert
*SFR* 000000D8H.0 DATA     BIT       RWT
*SFR* 000000B0H.0 DATA     BIT       RXD
      00FF789AH   CODE     ---       RxTask_AlwaysOn_Set
      00FF8728H   CODE     ---       RxTask_RxTimer_Set
      00FF6A30H   CODE     ---       RxTask_Timeout_Set
*SFR* 000000A9H   DATA     BYTE      SADDR
*SFR* 000000B9H   DATA     BYTE      SADEN
      0000AD2BH   EDATA    ---       sBmuCtrlPara
*SFR* 00000099H   DATA     BYTE      SBUF
*SFR* 000000C1H   DATA     BYTE      SBUF1
*SFR* 00000098H   DATA     BYTE      SCON
*SFR* 000000C0H   DATA     BYTE      SCON1
      00FF3665H   CODE     ---       SetRfIdle
      0000AACDH   EDATA    ---       sHalCtrl
      0000AB25H   EDATA    ---       sHalFuncHdlr
      00FFFB50H   HCONST   ---       sHalFwCfg
      00FFFB5DH   HCONST   ---       sHalHwCfgBLE
      00FFFB93H   HCONST   ---       sHalHwCfgWisun
      00FFFBC9H   HCONST   ---       sHalHwCfgZigbee
      00FFF66DH   HCONST   ---       sHalHwPara
      00FFF6CBH   HCONST   ---       sHalHwTab
      00FFFE4DH   HCONST   ---       sHalParaIndDefault
      0000AAF8H   EDATA    ---       sHalPktCfg
      00FFFEDBH   HCONST   ---       sHalPrtclCfg
      0000AD17H   EDATA    ---       sHalRfkCtrl
L251 LINKER/LOCATER V4.66.93.0                                                        01/04/2022  17:06:11  PAGE 21


*SFR* 00000098H.7 DATA     BIT       SM0
*SFR* 000000C0H.7 DATA     BIT       SM01
*SFR* 00000098H.6 DATA     BIT       SM1
*SFR* 000000C0H.6 DATA     BIT       SM11
*SFR* 00000098H.5 DATA     BIT       SM2
*SFR* 000000C0H.5 DATA     BIT       SM21
      0000ACE6H   EDATA    ---       sMsgCtrl
*SFR* 00000081H   DATA     BYTE      SP
*SFR* 000000ECH   DATA     BYTE      SPCR
*SFR* 000000EEH   DATA     BYTE      SPDR
*SFR* 000000BEH   DATA     BYTE      SPH
*SFR* 000000EDH   DATA     BYTE      SPSR
      0000A88DH   EDATA    ---       sQCtrl
      0000A899H   EDATA    ---       sQHeader
      0000A8F9H   EDATA    ---       sQPayload
*SFR* 000000EFH   DATA     BYTE      SSCR
      00FF6E99H   CODE     ---       SYS_ASSERT
      00FF6A8AH   CODE     ---       SYS_EnterSleepCheck
      00FF840DH   CODE     ---       SYS_EnterSleepGuard
      00FF85AEH   CODE     ---       SYS_Idle_Task
      00FF86CEH   CODE     ---       SYS_IdleTaskInit
      00FF8736H   CODE     ---       SYS_IdleTaskIntInit
      00FF6F74H   CODE     ---       SYS_InfoRegInit
      00FF7C49H   CODE     ---       SYS_Init
      00FF86BFH   CODE     ---       SYS_isClkAPassOverClkB
      00FF4186H   CODE     ---       SYS_Rand
      00FF641CH   CODE     ---       SYS_Sleep
      00FF7CA3H   CODE     ---       SYS_Task_Block
      00FF7B8EH   CODE     ---       SYS_Task_Register
      00FF7C1BH   CODE     ---       SYS_Task_Run
      00FF7D7AH   CODE     ---       SYS_Task_UnBlock
      00FF864EH   CODE     ---       SYS_TimerInit
*SFR* 000000B0H.4 DATA     BIT       T0
*SFR* 000000B0H.5 DATA     BIT       T1
*SFR* 00000090H.0 DATA     BIT       T2
*SFR* 000000C8H.2 DATA     BIT       T2CM
*SFR* 000000C8H   DATA     BYTE      T2CON
*SFR* 00000090H.1 DATA     BIT       T2EX
*SFR* 000000C8H.0 DATA     BIT       T2I0
*SFR* 000000C8H.1 DATA     BIT       T2I1
*SFR* 000000C9H   DATA     BYTE      T2IF
*SFR* 000000C9H   DATA     BYTE      T2MOD
*SFR* 000000C8H.7 DATA     BIT       T2PS
*SFR* 000000C8H.3 DATA     BIT       T2R0
*SFR* 000000C8H.4 DATA     BIT       T2R1
      00FF2153H   CODE     ---       T2RTask_Set
*SFR* 000000EBH   DATA     BYTE      TA
*SFR* 00000098H.3 DATA     BIT       TB8
*SFR* 000000C0H.3 DATA     BIT       TB81
*SFR* 0000009FH   DATA     BYTE      TB_SFR_REG
*SFR* 000000C8H.4 DATA     BIT       TCLK
*SFR* 00000088H   DATA     BYTE      TCON
*SFR* 00000088H.5 DATA     BIT       TF0
*SFR* 00000088H.7 DATA     BIT       TF1
*SFR* 000000C8H.7 DATA     BIT       TF2
*SFR* 0000008CH   DATA     BYTE      TH0
*SFR* 0000008DH   DATA     BYTE      TH1
*SFR* 000000CDH   DATA     BYTE      TH2
*SFR* 00000098H.1 DATA     BIT       TI
*SFR* 000000C0H.1 DATA     BIT       TI1
*SFR* 0000008AH   DATA     BYTE      TL0
*SFR* 0000008BH   DATA     BYTE      TL1
*SFR* 000000CCH   DATA     BYTE      TL2
*SFR* 00000089H   DATA     BYTE      TMOD
*SFR* 00000088H.4 DATA     BIT       TR0
L251 LINKER/LOCATER V4.66.93.0                                                        01/04/2022  17:06:11  PAGE 22


*SFR* 00000088H.6 DATA     BIT       TR1
*SFR* 000000C8H.2 DATA     BIT       TR2
*SFR* 000000B0H.1 DATA     BIT       TXD
      00FF793BH   CODE     ---       TxRtcTask_Set
      00FF2EF0H   CODE     ---       TxTask_Set
*SFR* 000000D0H.1 DATA     BIT       UD
*SFR* 00000096H   DATA     BYTE      USBADDR
*SFR* 00000097H   DATA     BYTE      USBDATA
*SFR* 000000D8H   DATA     BYTE      WDCON
*SFR* 000000D8H.3 DATA     BIT       WDIF
*SFR* 000000A6H   DATA     BYTE      WDTRST
*SFR* 000000B0H.6 DATA     BIT       WR
*SFR* 000000D8H.2 DATA     BIT       WTRF
*SFR* 00000092H   DATA     BYTE      WTST
*SFR* 000000D1H.1 DATA     BIT       Z_B



SYMBOL TABLE OF MODULE:  .\obj\RT569 (?C_START)

      VALUE       REP       CLASS    TYPE      SYMBOL NAME
      ====================================================
      ---         MODULE    ---      ---       ?C_START
      00FF0000H   PUBLIC    CODE     ---       ?C?STARTUP
      00FF0000H   PUBLIC    CODE     ---       ?C_STARTUP
      000000D0H.6 SFRSYM    DATA     BIT       AC
      000000E0H   SFRSYM    DATA     BYTE      ACC
      0000009DH   SFRSYM    DATA     BYTE      ACON
      000000F0H   SFRSYM    DATA     BYTE      B
      000000CEH   SFRSYM    DATA     BYTE      CCEN
      000000C3H   SFRSYM    DATA     BYTE      CCH1
      000000C5H   SFRSYM    DATA     BYTE      CCH2
      000000C7H   SFRSYM    DATA     BYTE      CCH3
      000000C2H   SFRSYM    DATA     BYTE      CCL1
      000000C4H   SFRSYM    DATA     BYTE      CCL2
      000000C6H   SFRSYM    DATA     BYTE      CCL3
      00000090H.3 SFRSYM    DATA     BIT       CEX0
      00000090H.4 SFRSYM    DATA     BIT       CEX1
      00000090H.5 SFRSYM    DATA     BIT       CEX2
      00000090H.6 SFRSYM    DATA     BIT       CEX3
      00000090H.7 SFRSYM    DATA     BIT       CEX4
      0000008EH   SFRSYM    DATA     BYTE      CKCON
      000000D8H.7 SFRSYM    DATA     BIT       CPUSRF
      000000C8H.0 SFRSYM    DATA     BIT       CP_RL2
      000000CBH   SFRSYM    DATA     BYTE      CRCH
      000000CAH   SFRSYM    DATA     BYTE      CRCL
      000000D0H.7 SFRSYM    DATA     BIT       CY
      000000C8H.1 SFRSYM    DATA     BIT       C_T2
      000000CFH   SFRSYM    DATA     BYTE      DEVICR
      0000008FH   SFRSYM    DATA     BYTE      DMAIR
      00000083H   SFRSYM    DATA     BYTE      DPH
      00000083H   SFRSYM    DATA     BYTE      DPH1
      00000082H   SFRSYM    DATA     BYTE      DPL
      00000082H   SFRSYM    DATA     BYTE      DPL1
      00000086H   SFRSYM    DATA     BYTE      DPS
      00000084H   SFRSYM    DATA     BYTE      DPX1
      00000084H   SFRSYM    DATA     BYTE      DPXL
      000000A8H.7 SFRSYM    DATA     BIT       EA
      00000090H.2 SFRSYM    DATA     BIT       ECI
      000000E8H   SFRSYM    DATA     BYTE      EIE
      00000091H   SFRSYM    DATA     BYTE      EIF
      000000F8H   SFRSYM    DATA     BYTE      EIP
      000000B6H   SFRSYM    DATA     BYTE      EIPH
      000000B6H   SFRSYM    DATA     BYTE      EIPH0
      000000F8H   SFRSYM    DATA     BYTE      EIPL
L251 LINKER/LOCATER V4.66.93.0                                                        01/04/2022  17:06:11  PAGE 23


      000000A8H.4 SFRSYM    DATA     BIT       ES
      000000A8H.4 SFRSYM    DATA     BIT       ES0
      000000A8H.6 SFRSYM    DATA     BIT       ES1
      000000A8H.1 SFRSYM    DATA     BIT       ET0
      000000A8H.3 SFRSYM    DATA     BIT       ET1
      000000A8H.5 SFRSYM    DATA     BIT       ET2
      000000D8H.1 SFRSYM    DATA     BIT       EWT
      000000A8H.0 SFRSYM    DATA     BIT       EX0
      000000A8H.2 SFRSYM    DATA     BIT       EX1
      000000C8H.3 SFRSYM    DATA     BIT       EXEN2
      000000C8H.6 SFRSYM    DATA     BIT       EXF2
      000000D0H.5 SFRSYM    DATA     BIT       F0
      00000098H.7 SFRSYM    DATA     BIT       FE
      000000F6H   SFRSYM    DATA     BYTE      I2CM_BUF
      000000F5H   SFRSYM    DATA     BYTE      I2CM_CR
      000000F4H   SFRSYM    DATA     BYTE      I2CM_SA
      000000F7H   SFRSYM    DATA     BYTE      I2CM_TP
      000000F1H   SFRSYM    DATA     BYTE      I2CS_ADDR
      000000F3H   SFRSYM    DATA     BYTE      I2CS_BUF
      000000F2H   SFRSYM    DATA     BYTE      I2CS_CR
      000000C8H.5 SFRSYM    DATA     BIT       I2FR
      000000C8H.6 SFRSYM    DATA     BIT       I3FR
      000000A8H   SFRSYM    DATA     BYTE      IE
      00000088H.1 SFRSYM    DATA     BIT       IE0
      00000088H.3 SFRSYM    DATA     BIT       IE1
      000000B1H   SFRSYM    DATA     BYTE      IEH
      000000A8H   SFRSYM    DATA     BYTE      IEL
      000000B0H.2 SFRSYM    DATA     BIT       INT0
      000000B0H.3 SFRSYM    DATA     BIT       INT1
      000000B8H   SFRSYM    DATA     BYTE      IP
      000000B7H   SFRSYM    DATA     BYTE      IPH
      000000B7H   SFRSYM    DATA     BYTE      IPH0
      000000B8H   SFRSYM    DATA     BYTE      IPL
      000000B8H   SFRSYM    DATA     BYTE      IPL0
      00000088H.0 SFRSYM    DATA     BIT       IT0
      00000088H.2 SFRSYM    DATA     BIT       IT1
      000000EAH   SFRSYM    DATA     BYTE      MXAX
      000000D1H.5 SFRSYM    DATA     BIT       N_B
      000000D0H.2 SFRSYM    DATA     BIT       OV
      000000D0H.0 SFRSYM    DATA     BIT       P
      00000080H   SFRSYM    DATA     BYTE      P0
      00000090H   SFRSYM    DATA     BYTE      P1
      000000A0H   SFRSYM    DATA     BYTE      P2
      000000B0H   SFRSYM    DATA     BYTE      P3
      00000087H   SFRSYM    DATA     BYTE      PCON
      000000D8H.6 SFRSYM    DATA     BIT       PORF
      000000B8H.4 SFRSYM    DATA     BIT       PS
      000000B8H.4 SFRSYM    DATA     BIT       PS0
      000000B8H.6 SFRSYM    DATA     BIT       PS1
      000000D0H   SFRSYM    DATA     BYTE      PSW
      000000D1H   SFRSYM    DATA     BYTE      PSW1
      000000B8H.1 SFRSYM    DATA     BIT       PT0
      000000B8H.3 SFRSYM    DATA     BIT       PT1
      000000B8H.5 SFRSYM    DATA     BIT       PT2
      000000B8H.0 SFRSYM    DATA     BIT       PX0
      000000B8H.2 SFRSYM    DATA     BIT       PX1
      00000098H.2 SFRSYM    DATA     BIT       RB8
      000000C0H.2 SFRSYM    DATA     BIT       RB81
      000000CBH   SFRSYM    DATA     BYTE      RCAP2H
      000000CAH   SFRSYM    DATA     BYTE      RCAP2L
      000000C8H.5 SFRSYM    DATA     BIT       RCLK
      000000B0H.7 SFRSYM    DATA     BIT       RD
      00000098H.4 SFRSYM    DATA     BIT       REN
      000000C0H.4 SFRSYM    DATA     BIT       REN1
      00000098H.0 SFRSYM    DATA     BIT       RI
L251 LINKER/LOCATER V4.66.93.0                                                        01/04/2022  17:06:11  PAGE 24


      000000C0H.0 SFRSYM    DATA     BIT       RI1
      000000CBH   SFRSYM    DATA     BYTE      RLDH
      000000CAH   SFRSYM    DATA     BYTE      RLDL
      000000D0H.3 SFRSYM    DATA     BIT       RS0
      000000D0H.4 SFRSYM    DATA     BIT       RS1
      000000D4H   SFRSYM    DATA     BYTE      RTCCON
      000000D7H   SFRSYM    DATA     BYTE      RTCICR
      000000D6H   SFRSYM    DATA     BYTE      RTCREG
      000000D5H   SFRSYM    DATA     BYTE      RTCSEC
      000000D8H.0 SFRSYM    DATA     BIT       RWT
      000000B0H.0 SFRSYM    DATA     BIT       RXD
      000000A9H   SFRSYM    DATA     BYTE      SADDR
      000000B9H   SFRSYM    DATA     BYTE      SADEN
      00000099H   SFRSYM    DATA     BYTE      SBUF
      000000C1H   SFRSYM    DATA     BYTE      SBUF1
      00000098H   SFRSYM    DATA     BYTE      SCON
      000000C0H   SFRSYM    DATA     BYTE      SCON1
      00000098H.7 SFRSYM    DATA     BIT       SM0
      000000C0H.7 SFRSYM    DATA     BIT       SM01
      00000098H.6 SFRSYM    DATA     BIT       SM1
      000000C0H.6 SFRSYM    DATA     BIT       SM11
      00000098H.5 SFRSYM    DATA     BIT       SM2
      000000C0H.5 SFRSYM    DATA     BIT       SM21
      00000081H   SFRSYM    DATA     BYTE      SP
      000000ECH   SFRSYM    DATA     BYTE      SPCR
      000000EEH   SFRSYM    DATA     BYTE      SPDR
      000000BEH   SFRSYM    DATA     BYTE      SPH
      000000EDH   SFRSYM    DATA     BYTE      SPSR
      000000EFH   SFRSYM    DATA     BYTE      SSCR
      000000B0H.4 SFRSYM    DATA     BIT       T0
      000000B0H.5 SFRSYM    DATA     BIT       T1
      00000090H.0 SFRSYM    DATA     BIT       T2
      000000C8H.2 SFRSYM    DATA     BIT       T2CM
      000000C8H   SFRSYM    DATA     BYTE      T2CON
      00000090H.1 SFRSYM    DATA     BIT       T2EX
      000000C8H.0 SFRSYM    DATA     BIT       T2I0
      000000C8H.1 SFRSYM    DATA     BIT       T2I1
      000000C9H   SFRSYM    DATA     BYTE      T2IF
      000000C9H   SFRSYM    DATA     BYTE      T2MOD
      000000C8H.7 SFRSYM    DATA     BIT       T2PS
      000000C8H.3 SFRSYM    DATA     BIT       T2R0
      000000C8H.4 SFRSYM    DATA     BIT       T2R1
      000000EBH   SFRSYM    DATA     BYTE      TA
      00000098H.3 SFRSYM    DATA     BIT       TB8
      000000C0H.3 SFRSYM    DATA     BIT       TB81
      0000009FH   SFRSYM    DATA     BYTE      TB_SFR_REG
      000000C8H.4 SFRSYM    DATA     BIT       TCLK
      00000088H   SFRSYM    DATA     BYTE      TCON
      00000088H.5 SFRSYM    DATA     BIT       TF0
      00000088H.7 SFRSYM    DATA     BIT       TF1
      000000C8H.7 SFRSYM    DATA     BIT       TF2
      0000008CH   SFRSYM    DATA     BYTE      TH0
      0000008DH   SFRSYM    DATA     BYTE      TH1
      000000CDH   SFRSYM    DATA     BYTE      TH2
      00000098H.1 SFRSYM    DATA     BIT       TI
      000000C0H.1 SFRSYM    DATA     BIT       TI1
      0000008AH   SFRSYM    DATA     BYTE      TL0
      0000008BH   SFRSYM    DATA     BYTE      TL1
      000000CCH   SFRSYM    DATA     BYTE      TL2
      00000089H   SFRSYM    DATA     BYTE      TMOD
      00000088H.4 SFRSYM    DATA     BIT       TR0
      00000088H.6 SFRSYM    DATA     BIT       TR1
      000000C8H.2 SFRSYM    DATA     BIT       TR2
      000000B0H.1 SFRSYM    DATA     BIT       TXD
      00000096H   SFRSYM    DATA     BYTE      USBADDR
L251 LINKER/LOCATER V4.66.93.0                                                        01/04/2022  17:06:11  PAGE 25


      00000097H   SFRSYM    DATA     BYTE      USBDATA
      000000D8H   SFRSYM    DATA     BYTE      WDCON
      000000D8H.3 SFRSYM    DATA     BIT       WDIF
      000000A6H   SFRSYM    DATA     BYTE      WDTRST
      000000B0H.6 SFRSYM    DATA     BIT       WR
      000000D8H.2 SFRSYM    DATA     BIT       WTRF
      00000092H   SFRSYM    DATA     BYTE      WTST
      000000D1H.1 SFRSYM    DATA     BIT       Z_B
      00FF1FF8H   SYMBOL    NUMBER   ---       CFGADDR
      00FF1FFFH   SYMBOL    NUMBER   ---       CODEHIGH
      00002000H   SYMBOL    NUMBER   ---       EDATALEN
      00FF71F2H   SYMBOL    CODE     ---       EDATALOOP
      0000A000H   SYMBOL    NUMBER   ---       EDATASTART
      00000001H   SYMBOL    NUMBER   ---       INTR
      00000010H   SYMBOL    NUMBER   ---       RTCACAP_B
      00000040H   SYMBOL    NUMBER   ---       RTCBSY_B
      00000040H   SYMBOL    NUMBER   ---       RTCCAP_B
      00000080H   SYMBOL    NUMBER   ---       RTCEN_B
      00000008H   SYMBOL    NUMBER   ---       RTCRLD_B
      00000020H   SYMBOL    NUMBER   ---       RTCRST_B
      00000008H   SYMBOL    NUMBER   ---       RTCSET_B
      00000001H   SYMBOL    NUMBER   ---       SRCM
      00000300H   SYMBOL    NUMBER   ---       STACKSIZE
      00FF71E7H   SYMBOL    CODE     ---       STARTUP1
      00000000H   SYMBOL    NUMBER   ---       XDATALEN

      00FF0000H   BLOCK     CODE     NEAR LAB  LVL=0
      00FF0000H   LINE      CODE     ---       #86
      ---         BLOCKEND  ---      ---       LVL=0

      00FF71E7H   BLOCK     CODE     NEAR LAB  LVL=0
      00FF71E7H   LINE      CODE     ---       #92
      00FF71EAH   LINE      CODE     ---       #95
      00FF71EDH   LINE      CODE     ---       #96
      00FF71F1H   LINE      CODE     ---       #97
      00FF71F2H   LINE      CODE     ---       #99
      00FF71F3H   LINE      CODE     ---       #100
      00FF71F4H   LINE      CODE     ---       #101
      00FF71F6H   LINE      CODE     ---       #102
      00FF71F8H   LINE      CODE     ---       #115
      00FF71FAH   LINE      CODE     ---       #116
      ---         BLOCKEND  ---      ---       LVL=0

      00FF7227H   BLOCK     CODE     NEAR LAB  LVL=0
      00FF7227H   LINE      CODE     ---       #121
      ---         BLOCKEND  ---      ---       LVL=0

      ---         MODULE    ---      ---       main
      00FF8851H   PUBLIC    CODE     ---       main

      00FF8851H   BLOCK     CODE     ---       LVL=0
      00FF8851H   LINE      CODE     ---       #24
      00FF8851H   LINE      CODE     ---       #26
      00FF8854H   LINE      CODE     ---       #27
      00FF8854H   LINE      CODE     ---       #29
      00FF8857H   LINE      CODE     ---       #30
      ---         BLOCKEND  ---      ---       LVL=0

      ---         MODULE    ---      ---       rf_task_ctrl
      00FF7626H   PUBLIC    CODE     ---       RF_Task_En
      00FF72F3H   PUBLIC    CODE     ---       RF_Task_AllStop
      00FF711BH   PUBLIC    CODE     ---       RF_Task_LoopbackSel
      00FF4484H   PUBLIC    CODE     ---       RF_Task_Set

      00FF7626H   BLOCK     CODE     ---       LVL=0
L251 LINKER/LOCATER V4.66.93.0                                                        01/04/2022  17:06:11  PAGE 26


      R11         REGSYM    ---      BYTE      enTask
      R10         REGSYM    ---      BYTE      mode
      00FF7628H   BLOCK     CODE     NEAR LAB  LVL=1
      REG=4       REGSYM    ---      ---       pRegTaskCtrlByte
      ---         BLOCKEND  ---      ---       LVL=1
      00FF7626H   LINE      CODE     ---       #36
      00FF7628H   LINE      CODE     ---       #44
      00FF763CH   LINE      CODE     ---       #50
      00FF7645H   LINE      CODE     ---       #51
      00FF764FH   LINE      CODE     ---       #56
      00FF7654H   LINE      CODE     ---       #61
      00FF7660H   LINE      CODE     ---       #62
      ---         BLOCKEND  ---      ---       LVL=0

      00FF72F3H   BLOCK     CODE     ---       LVL=0
      00FF72F3H   LINE      CODE     ---       #73
      00FF72F3H   LINE      CODE     ---       #75
      00FF72FFH   LINE      CODE     ---       #76
      00FF7304H   LINE      CODE     ---       #83
      00FF7310H   LINE      CODE     ---       #84
      00FF731CH   LINE      CODE     ---       #85
      00FF7328H   LINE      CODE     ---       #86
      00FF7334H   LINE      CODE     ---       #88
      ---         BLOCKEND  ---      ---       LVL=0

      00FF711BH   BLOCK     CODE     ---       LVL=0
      R10         REGSYM    ---      BYTE      mode
      00FF711BH   LINE      CODE     ---       #96
      00FF711DH   LINE      CODE     ---       #98
      00FF7129H   LINE      CODE     ---       #99
      00FF7135H   LINE      CODE     ---       #100
      00FF713AH   LINE      CODE     ---       #101
      00FF7146H   LINE      CODE     ---       #102
      00FF7146H   LINE      CODE     ---       #103
      00FF714EH   LINE      CODE     ---       #104
      00FF714FH   LINE      CODE     ---       #105
      00FF714FH   LINE      CODE     ---       #106
      00FF7154H   LINE      CODE     ---       #107
      00FF7156H   LINE      CODE     ---       #108
      00FF7156H   LINE      CODE     ---       #109
      00FF715EH   LINE      CODE     ---       #110
      00FF715EH   LINE      CODE     ---       #111
      00FF715EH   LINE      CODE     ---       #112
      ---         BLOCKEND  ---      ---       LVL=0

      00FF4484H   BLOCK     CODE     ---       LVL=0
      REG=1       REGSYM    ---      ---       pTaskCtrl
      R5          REGSYM    ---      BYTE      taskNum
      00FF4488H   BLOCK     CODE     NEAR LAB  LVL=1
      REG=0       REGSYM    ---      ---       pRegTaskCtrlByte
      ---         BLOCKEND  ---      ---       LVL=1
      00FF4484H   LINE      CODE     ---       #147
      00FF4488H   LINE      CODE     ---       #155
      00FF4492H   LINE      CODE     ---       #156
      00FF4495H   LINE      CODE     ---       #157
      00FF4495H   LINE      CODE     ---       #191
      00FF449EH   LINE      CODE     ---       #207
      00FF44ADH   LINE      CODE     ---       #208
      00FF44BEH   LINE      CODE     ---       #209
      00FF44C6H   LINE      CODE     ---       #210
      00FF44D0H   LINE      CODE     ---       #212
      00FF44DCH   LINE      CODE     ---       #213
      00FF44EAH   LINE      CODE     ---       #214
      00FF44F8H   LINE      CODE     ---       #215
      00FF4506H   LINE      CODE     ---       #217
L251 LINKER/LOCATER V4.66.93.0                                                        01/04/2022  17:06:11  PAGE 27


      00FF4512H   LINE      CODE     ---       #218
      00FF451EH   LINE      CODE     ---       #219
      00FF452AH   LINE      CODE     ---       #220
      00FF4536H   LINE      CODE     ---       #223
      00FF4537H   LINE      CODE     ---       #225
      ---         BLOCKEND  ---      ---       LVL=0

      ---         MODULE    ---      ---       intr_rf
      00FF7B5FH   PUBLIC    CODE     ---       INTR_Clear
      00FF862CH   PUBLIC    CODE     ---       INTR_ClearRtcGrp
      00FF0006H   PUBLIC    CODE     ---       INTR_Enable
      00FF86A1H   PUBLIC    CODE     ---       INTR_Rf_Hdlr
      00FF30DAH   PUBLIC    CODE     ---       INTR_Rf_Register
      0000AC9AH   PUBLIC    EDATA    ---       gIntrRfHdlrTable
      000000A8H.0 SFRSYM    DATA     BIT       EX0
      000000A8H.7 SFRSYM    DATA     BIT       EA
      00FF886BH   SYMBOL    CODE     ---       INTR_Rf_NullHdlr

      00FF886BH   BLOCK     CODE     ---       LVL=0
      00FF886BH   LINE      CODE     ---       #34
      00FF886BH   LINE      CODE     ---       #35
      00FF886BH   LINE      CODE     ---       #36
      00FF886BH   LINE      CODE     ---       #37
      ---         BLOCKEND  ---      ---       LVL=0

      00FF7B5FH   BLOCK     CODE     ---       LVL=0
      00FF7B5FH   LINE      CODE     ---       #43
      00FF7B5FH   LINE      CODE     ---       #45
      00FF7B61H   LINE      CODE     ---       #46
      00FF7B70H   LINE      CODE     ---       #48
      00FF7B7FH   LINE      CODE     ---       #49
      00FF7B8DH   LINE      CODE     ---       #50
      ---         BLOCKEND  ---      ---       LVL=0

      00FF862CH   BLOCK     CODE     ---       LVL=0
      00FF862CH   LINE      CODE     ---       #53
      00FF862CH   LINE      CODE     ---       #56
      00FF863CH   LINE      CODE     ---       #57
      ---         BLOCKEND  ---      ---       LVL=0

      00FF0006H   BLOCK     CODE     ---       LVL=0
      00FF0006H   LINE      CODE     ---       #60
      00FF0006H   LINE      CODE     ---       #62
      00FF0008H   LINE      CODE     ---       #64
      00FF000AH   LINE      CODE     ---       #65
      ---         BLOCKEND  ---      ---       LVL=0

      00FF86A1H   BLOCK     CODE     ---       LVL=0
      R6          REGSYM    ---      BYTE      intId
      R10         REGSYM    ---      BYTE      intSts
      00FF86A1H   LINE      CODE     ---       #76
      00FF86A3H   LINE      CODE     ---       #77
      ---         BLOCKEND  ---      ---       LVL=0

      00FF30DAH   BLOCK     CODE     ---       LVL=0
      R5          REGSYM    ---      BYTE      intId
      WR2         REGSYM    ---      WORD      enMask
      REG=4       REGSYM    ---      ---       intHdlr
      00FF30DAH   LINE      CODE     ---       #92
      00FF30E0H   LINE      CODE     ---       #94
      00FF30E9H   LINE      CODE     ---       #95
      00FF30ECH   LINE      CODE     ---       #96
      00FF30ECH   LINE      CODE     ---       #98
      00FF30F4H   LINE      CODE     ---       #101
      00FF3108H   LINE      CODE     ---       #103
L251 LINKER/LOCATER V4.66.93.0                                                        01/04/2022  17:06:11  PAGE 28


      00FF3108H   LINE      CODE     ---       #104
      00FF312AH   LINE      CODE     ---       #105
      00FF312CH   LINE      CODE     ---       #106
      00FF312CH   LINE      CODE     ---       #107
      00FF314EH   LINE      CODE     ---       #108
      00FF3150H   LINE      CODE     ---       #114
      00FF3150H   LINE      CODE     ---       #118
      00FF3174H   LINE      CODE     ---       #120
      00FF3176H   LINE      CODE     ---       #121
      00FF3176H   LINE      CODE     ---       #122
      00FF319FH   LINE      CODE     ---       #123
      00FF31A1H   LINE      CODE     ---       #128
      00FF31A4H   LINE      CODE     ---       #129
      00FF31A4H   LINE      CODE     ---       #130
      00FF31CAH   LINE      CODE     ---       #132
      00FF31CBH   LINE      CODE     ---       #133
      ---         BLOCKEND  ---      ---       LVL=0

      ---         MODULE    ---      ---       sys_init
      00FF7C49H   PUBLIC    CODE     ---       SYS_Init
      00FF6F74H   PUBLIC    CODE     ---       SYS_InfoRegInit

      00FF6F74H   BLOCK     CODE     ---       LVL=0
      00FF6F74H   LINE      CODE     ---       #58
      00FF6F74H   LINE      CODE     ---       #61
      00FF6F80H   LINE      CODE     ---       #64
      00FF6F92H   LINE      CODE     ---       #65
      00FF6FA1H   LINE      CODE     ---       #68
      00FF6FAAH   LINE      CODE     ---       #71
      00FF6FB2H   LINE      CODE     ---       #75
      00FF6FBBH   LINE      CODE     ---       #79
      ---         BLOCKEND  ---      ---       LVL=0

      00FF7C49H   BLOCK     CODE     ---       LVL=0
      00FF7C49H   LINE      CODE     ---       #88
      00FF7C49H   LINE      CODE     ---       #91
      00FF7C4CH   LINE      CODE     ---       #104
      00FF7C4FH   LINE      CODE     ---       #110
      00FF7C5EH   LINE      CODE     ---       #115
      00FF7C63H   LINE      CODE     ---       #135
      00FF7C66H   LINE      CODE     ---       #144
      00FF7C69H   LINE      CODE     ---       #147
      00FF7C6CH   LINE      CODE     ---       #151
      00FF7C75H   LINE      CODE     ---       #158
      ---         BLOCKEND  ---      ---       LVL=0

      ---         MODULE    ---      ---       sys_task
      00FF7CA3H   PUBLIC    CODE     ---       SYS_Task_Block
      00FF7D7AH   PUBLIC    CODE     ---       SYS_Task_UnBlock
      00FF7B8EH   PUBLIC    CODE     ---       SYS_Task_Register
      00FF7C1BH   PUBLIC    CODE     ---       SYS_Task_Run
      0000ACD7H   PUBLIC    EDATA    BYTE      gTaskMask
      0000ACD8H   PUBLIC    EDATA    ---       gTaskTable
      00FF886CH   SYMBOL    CODE     ---       SYS_Null_Task

      00FF886CH   BLOCK     CODE     ---       LVL=0
      00FF886CH   LINE      CODE     ---       #36
      00FF886CH   LINE      CODE     ---       #37
      00FF886CH   LINE      CODE     ---       #38
      ---         BLOCKEND  ---      ---       LVL=0

      00FF7CA3H   BLOCK     CODE     ---       LVL=0
      R11         REGSYM    ---      BYTE      hdlTask
      R15         REGSYM    ---      BYTE      blkTask
      00FF7CA3H   LINE      CODE     ---       #52
L251 LINKER/LOCATER V4.66.93.0                                                        01/04/2022  17:06:11  PAGE 29


      00FF7CA7H   LINE      CODE     ---       #55
      00FF7CB0H   LINE      CODE     ---       #56
      00FF7CB4H   LINE      CODE     ---       #57
      00FF7CB4H   LINE      CODE     ---       #59
      00FF7CCCH   LINE      CODE     ---       #61
      ---         BLOCKEND  ---      ---       LVL=0

      00FF7D7AH   BLOCK     CODE     ---       LVL=0
      R11         REGSYM    ---      BYTE      hdlTask
      R15         REGSYM    ---      BYTE      blkTask
      00FF7D7AH   LINE      CODE     ---       #71
      00FF7D7EH   LINE      CODE     ---       #74
      00FF7D87H   LINE      CODE     ---       #75
      00FF7D8BH   LINE      CODE     ---       #76
      00FF7D8BH   LINE      CODE     ---       #78
      00FF7DA0H   LINE      CODE     ---       #80
      ---         BLOCKEND  ---      ---       LVL=0

      00FF7B8EH   BLOCK     CODE     ---       LVL=0
      R5          REGSYM    ---      BYTE      taskId
      REG=4       REGSYM    ---      ---       taskFunc
      00FF7B8EH   LINE      CODE     ---       #91
      00FF7B92H   LINE      CODE     ---       #92
      00FF7B9BH   LINE      CODE     ---       #93
      00FF7B9EH   LINE      CODE     ---       #94
      00FF7B9EH   LINE      CODE     ---       #95
      00FF7BA6H   LINE      CODE     ---       #96
      00FF7BBBH   LINE      CODE     ---       #97
      00FF7BBCH   LINE      CODE     ---       #98
      ---         BLOCKEND  ---      ---       LVL=0

      00FF7C1BH   BLOCK     CODE     ---       LVL=0
      R15         REGSYM    ---      BYTE      taskId
      00FF7C1BH   LINE      CODE     ---       #107
      00FF7C1BH   LINE      CODE     ---       #112
      00FF7C1BH   LINE      CODE     ---       #113
      00FF7C1DH   LINE      CODE     ---       #114
      00FF7C1DH   LINE      CODE     ---       #115
      00FF7C36H   LINE      CODE     ---       #116
      00FF7C40H   LINE      CODE     ---       #117
      00FF7C40H   LINE      CODE     ---       #118
      00FF7C42H   LINE      CODE     ---       #119
      00FF7C47H   LINE      CODE     ---       #120
      ---         BLOCKEND  ---      ---       LVL=0

      ---         MODULE    ---      ---       isr_hdlr
      00FF5158H   PUBLIC    CODE     ---       ISR_0_Hdlr
      00FF863DH   PUBLIC    CODE     ---       ISR_CLEAR_MAC_STATUS
      00FF86B0H   PUBLIC    CODE     ---       ISR_GET_MAC_STATUS
      00FF886DH   PUBLIC    CODE     ---       ISR_1_Hdlr
      000000A8H.7 SFRSYM    DATA     BIT       EA

      00FF5158H   BLOCK     CODE     ---       LVL=0
      00FF516DH   BLOCK     CODE     NEAR LAB  LVL=1
      R14         REGSYM    ---      BYTE      bmuStatus
      R15         REGSYM    ---      BYTE      macStatus
      ---         BLOCKEND  ---      ---       LVL=1
      00FF5158H   LINE      CODE     ---       #18
      00FF516DH   LINE      CODE     ---       #27
      00FF516FH   LINE      CODE     ---       #30
      00FF517CH   LINE      CODE     ---       #31
      00FF5183H   LINE      CODE     ---       #34
      00FF5189H   LINE      CODE     ---       #35
      00FF5190H   LINE      CODE     ---       #36
      00FF5190H   LINE      CODE     ---       #39
L251 LINKER/LOCATER V4.66.93.0                                                        01/04/2022  17:06:11  PAGE 30


      00FF5195H   LINE      CODE     ---       #41
      00FF519CH   LINE      CODE     ---       #42
      00FF519CH   LINE      CODE     ---       #46
      00FF51A3H   LINE      CODE     ---       #47
      00FF51A7H   LINE      CODE     ---       #48
      00FF51A7H   LINE      CODE     ---       #51
      00FF51AEH   LINE      CODE     ---       #52
      00FF51B3H   LINE      CODE     ---       #53
      00FF51B3H   LINE      CODE     ---       #61
      00FF51C0H   LINE      CODE     ---       #62
      00FF51CEH   LINE      CODE     ---       #65
      00FF51D0H   LINE      CODE     ---       #67
      ---         BLOCKEND  ---      ---       LVL=0

      00FF863DH   BLOCK     CODE     ---       LVL=0
      R0          REGSYM    ---      BYTE      status
      00FF863DH   LINE      CODE     ---       #69
      00FF863FH   LINE      CODE     ---       #71
      00FF864DH   LINE      CODE     ---       #72
      ---         BLOCKEND  ---      ---       LVL=0

      00FF86B0H   BLOCK     CODE     ---       LVL=0
      00FF86B0H   LINE      CODE     ---       #74
      00FF86B0H   LINE      CODE     ---       #76
      00FF86BEH   LINE      CODE     ---       #77
      ---         BLOCKEND  ---      ---       LVL=0

      00FF886DH   BLOCK     CODE     ---       LVL=0
      00FF886DH   LINE      CODE     ---       #81
      00FF886DH   LINE      CODE     ---       #96
      ---         BLOCKEND  ---      ---       LVL=0

      ---         MODULE    ---      ---       sys_ctrl
      00FF6E99H   PUBLIC    CODE     ---       SYS_ASSERT
      00FF86BFH   PUBLIC    CODE     ---       SYS_isClkAPassOverClkB
      00FF4186H   PUBLIC    CODE     ---       SYS_Rand
      00FF86CEH   PUBLIC    CODE     ---       SYS_IdleTaskInit
      00FF864EH   PUBLIC    CODE     ---       SYS_TimerInit
      00FF641CH   PUBLIC    CODE     ---       SYS_Sleep
      00FF840DH   PUBLIC    CODE     ---       SYS_EnterSleepGuard
      00FF6A8AH   PUBLIC    CODE     ---       SYS_EnterSleepCheck
      00FF85AEH   PUBLIC    CODE     ---       SYS_Idle_Task
      00FF8736H   PUBLIC    CODE     ---       SYS_IdleTaskIntInit
      0000ACB9H   PUBLIC    EDATA    DWORD     gLastWakeTick
      0000ACBDH   PUBLIC    EDATA    ---       gSysEntry_Sleep
      000000A8H.1 SFRSYM    DATA     BIT       ET0
      00000088H.4 SFRSYM    DATA     BIT       TR0
      0000008EH   SFRSYM    DATA     BYTE      CKCON
      0000008CH   SFRSYM    DATA     BYTE      TH0
      0000008AH   SFRSYM    DATA     BYTE      TL0
      00000089H   SFRSYM    DATA     BYTE      TMOD
      00000087H   SFRSYM    DATA     BYTE      PCON
      000000BEH   SFRSYM    DATA     BYTE      SPH
      00000081H   SFRSYM    DATA     BYTE      SP
      00000080H   SFRSYM    DATA     BYTE      P0

      00FF840DH   BLOCK     CODE     ---       LVL=0
      00FF840DH   LINE      CODE     ---       #55
      00FF840DH   LINE      CODE     ---       #56
      ---         BLOCKEND  ---      ---       LVL=0

      00FF6A8AH   BLOCK     CODE     ---       LVL=0
      00FF6A8CH   BLOCK     CODE     NEAR LAB  LVL=1
      R15         REGSYM    ---      BYTE      check
      ---         BLOCKEND  ---      ---       LVL=1
L251 LINKER/LOCATER V4.66.93.0                                                        01/04/2022  17:06:11  PAGE 31


      00FF6A8AH   LINE      CODE     ---       #59
      00FF6A8CH   LINE      CODE     ---       #61
      00FF6A8EH   LINE      CODE     ---       #64
      00FF6AC2H   LINE      CODE     ---       #65
      00FF6AC5H   LINE      CODE     ---       #66
      00FF6AC5H   LINE      CODE     ---       #74
      00FF6ACAH   LINE      CODE     ---       #75
      00FF6ACDH   LINE      CODE     ---       #76
      00FF6ACDH   LINE      CODE     ---       #79
      00FF6AD2H   LINE      CODE     ---       #80
      00FF6AD5H   LINE      CODE     ---       #81
      00FF6AD5H   LINE      CODE     ---       #83
      00FF6ADEH   LINE      CODE     ---       #84
      ---         BLOCKEND  ---      ---       LVL=0

      00FF641CH   BLOCK     CODE     ---       LVL=0
      00FF641CH   LINE      CODE     ---       #94
      00FF641CH   LINE      CODE     ---       #96
      00FF6429H   LINE      CODE     ---       #102
      00FF642EH   LINE      CODE     ---       #104
      00FF6431H   LINE      CODE     ---       #106
      00FF643CH   LINE      CODE     ---       #107
      00FF6449H   LINE      CODE     ---       #108
      00FF644BH   LINE      CODE     ---       #109
      00FF644EH   LINE      CODE     ---       #111
      00FF645FH   LINE      CODE     ---       #113
      00FF6478H   LINE      CODE     ---       #115
      00FF647BH   LINE      CODE     ---       #117
      00FF647BH   LINE      CODE     ---       #119
      00FF6482H   LINE      CODE     ---       #120
      00FF6482H   LINE      CODE     ---       #122
      ---         BLOCKEND  ---      ---       LVL=0

      00FF85AEH   BLOCK     CODE     ---       LVL=0
      00FF85AEH   LINE      CODE     ---       #132
      00FF85AEH   LINE      CODE     ---       #135
      00FF85B1H   LINE      CODE     ---       #147
      00FF85B4H   LINE      CODE     ---       #150
      00FF85BAH   LINE      CODE     ---       #153
      00FF85C0H   LINE      CODE     ---       #155
      00FF85C0H   LINE      CODE     ---       #156
      ---         BLOCKEND  ---      ---       LVL=0

      00FF8736H   BLOCK     CODE     ---       LVL=0
      00FF8736H   LINE      CODE     ---       #170
      00FF8736H   LINE      CODE     ---       #174
      ---         BLOCKEND  ---      ---       LVL=0

      00FF86CEH   BLOCK     CODE     ---       LVL=0
      00FF86CEH   LINE      CODE     ---       #186
      00FF86CEH   LINE      CODE     ---       #188
      00FF86D7H   LINE      CODE     ---       #189
      00FF86DAH   LINE      CODE     ---       #193
      ---         BLOCKEND  ---      ---       LVL=0

      00FF864EH   BLOCK     CODE     ---       LVL=0
      00FF864EH   LINE      CODE     ---       #206
      00FF864EH   LINE      CODE     ---       #221
      00FF8651H   LINE      CODE     ---       #222
      00FF8654H   LINE      CODE     ---       #223
      00FF8657H   LINE      CODE     ---       #224
      00FF865AH   LINE      CODE     ---       #225
      00FF865CH   LINE      CODE     ---       #226
      00FF865EH   LINE      CODE     ---       #231
      ---         BLOCKEND  ---      ---       LVL=0
L251 LINKER/LOCATER V4.66.93.0                                                        01/04/2022  17:06:11  PAGE 32



      00FF86BFH   BLOCK     CODE     ---       LVL=0
      DR4         REGSYM    ---      DWORD     clkA
      DR8         REGSYM    ---      DWORD     clkB
      00FF86BFH   LINE      CODE     ---       #241
      00FF86C1H   LINE      CODE     ---       #243
      00FF86CDH   LINE      CODE     ---       #244
      ---         BLOCKEND  ---      ---       LVL=0

      00FF6E99H   BLOCK     CODE     ---       LVL=0
      R7          REGSYM    ---      BYTE      cond
      00FF6E9BH   BLOCK     CODE     NEAR LAB  LVL=1
      REG=3       REGSYM    ---      ---       stackPtr
      REG=1       REGSYM    ---      ---       assertReportPtr
      ---         BLOCKEND  ---      ---       LVL=1
      00FF6E99H   LINE      CODE     ---       #278
      00FF6E9BH   LINE      CODE     ---       #279
      00FF6E9BH   LINE      CODE     ---       #283
      00FF6E9FH   LINE      CODE     ---       #285
      00FF6EADH   LINE      CODE     ---       #286
      00FF6EB1H   LINE      CODE     ---       #288
      00FF6EBFH   LINE      CODE     ---       #290
      00FF6EC8H   LINE      CODE     ---       #292
      00FF6EC8H   LINE      CODE     ---       #294
      00FF6ECBH   LINE      CODE     ---       #295
      00FF6ECEH   LINE      CODE     ---       #296
      00FF6ED3H   LINE      CODE     ---       #297
      00FF6ED6H   LINE      CODE     ---       #298
      00FF6EDCH   LINE      CODE     ---       #299
      00FF6EDFH   LINE      CODE     ---       #300
      00FF6EE1H   LINE      CODE     ---       #301
      ---         BLOCKEND  ---      ---       LVL=0

      00FF4186H   BLOCK     CODE     ---       LVL=0
      0000ACA2H   SYMBOL    EDATA    ---       seed
      REG=7       REGSYM    ---      ---       output
      R13         REGSYM    ---      BYTE      outputLen
      00FF4190H   BLOCK     CODE     NEAR LAB  LVL=1
      0000ACA4H   SYMBOL    EDATA    DWORD     seed2
      R12         REGSYM    ---      BYTE      i
      0000ACA8H   SYMBOL    EDATA    ---       pSeed
      ---         BLOCKEND  ---      ---       LVL=1
      00FF4186H   LINE      CODE     ---       #306
      00FF4190H   LINE      CODE     ---       #307
      00FF4190H   LINE      CODE     ---       #312
      00FF419DH   LINE      CODE     ---       #318
      00FF41B4H   LINE      CODE     ---       #319
      00FF41C3H   LINE      CODE     ---       #322
      00FF41CBH   LINE      CODE     ---       #324
      00FF41CFH   LINE      CODE     ---       #325
      00FF41D7H   LINE      CODE     ---       #336
      00FF41F2H   LINE      CODE     ---       #338
      00FF41F2H   LINE      CODE     ---       #340
      00FF41FCH   LINE      CODE     ---       #341
      00FF4210H   LINE      CODE     ---       #342
      00FF4212H   LINE      CODE     ---       #344
      00FF4227H   LINE      CODE     ---       #345
      00FF4227H   LINE      CODE     ---       #346
      00FF422DH   LINE      CODE     ---       #348
      00FF4237H   LINE      CODE     ---       #349
      00FF4245H   LINE      CODE     ---       #350
      ---         BLOCKEND  ---      ---       LVL=0

      ---         MODULE    ---      ---       SYS_MEM
      00FF7335H   PUBLIC    CODE     ---       ASM_MEMSET
L251 LINKER/LOCATER V4.66.93.0                                                        01/04/2022  17:06:11  PAGE 33


      000000D0H.6 SFRSYM    DATA     BIT       AC
      000000D8H.0 SFRSYM    DATA     BIT       CCF0
      000000D8H.1 SFRSYM    DATA     BIT       CCF1
      000000D8H.2 SFRSYM    DATA     BIT       CCF2
      000000D8H.3 SFRSYM    DATA     BIT       CCF3
      000000D8H.4 SFRSYM    DATA     BIT       CCF4
      00000090H.3 SFRSYM    DATA     BIT       CEX0
      00000090H.4 SFRSYM    DATA     BIT       CEX1
      00000090H.5 SFRSYM    DATA     BIT       CEX2
      00000090H.6 SFRSYM    DATA     BIT       CEX3
      00000090H.7 SFRSYM    DATA     BIT       CEX4
      000000D8H.7 SFRSYM    DATA     BIT       CF
      000000C8H.0 SFRSYM    DATA     BIT       CP_RL2
      000000D8H.6 SFRSYM    DATA     BIT       CR
      000000D0H.7 SFRSYM    DATA     BIT       CY
      000000C8H.1 SFRSYM    DATA     BIT       C_T2
      000000A8H.7 SFRSYM    DATA     BIT       EA
      000000A8H.6 SFRSYM    DATA     BIT       EC
      00000090H.2 SFRSYM    DATA     BIT       ECI
      000000A8H.4 SFRSYM    DATA     BIT       ES
      000000A8H.1 SFRSYM    DATA     BIT       ET0
      000000A8H.3 SFRSYM    DATA     BIT       ET1
      000000A8H.5 SFRSYM    DATA     BIT       ET2
      000000A8H.0 SFRSYM    DATA     BIT       EX0
      000000A8H.2 SFRSYM    DATA     BIT       EX1
      000000C8H.3 SFRSYM    DATA     BIT       EXEN2
      000000C8H.6 SFRSYM    DATA     BIT       EXF2
      000000D0H.5 SFRSYM    DATA     BIT       F0
      00000098H.7 SFRSYM    DATA     BIT       FE
      00000088H.1 SFRSYM    DATA     BIT       IE0_
      00000088H.3 SFRSYM    DATA     BIT       IE1_
      000000B0H.2 SFRSYM    DATA     BIT       INT0
      000000B0H.3 SFRSYM    DATA     BIT       INT1
      00000088H.0 SFRSYM    DATA     BIT       IT0
      00000088H.2 SFRSYM    DATA     BIT       IT1
      000000D0H.2 SFRSYM    DATA     BIT       OV
      000000D0H.0 SFRSYM    DATA     BIT       P
      000000B8H.6 SFRSYM    DATA     BIT       PPC
      000000B8H.4 SFRSYM    DATA     BIT       PS
      000000B8H.1 SFRSYM    DATA     BIT       PT0
      000000B8H.3 SFRSYM    DATA     BIT       PT1
      000000B8H.5 SFRSYM    DATA     BIT       PT2
      000000B8H.0 SFRSYM    DATA     BIT       PX0
      000000B8H.2 SFRSYM    DATA     BIT       PX1
      00000098H.2 SFRSYM    DATA     BIT       RB8
      000000C8H.5 SFRSYM    DATA     BIT       RCLK
      000000B0H.7 SFRSYM    DATA     BIT       RD
      00000098H.4 SFRSYM    DATA     BIT       REN
      00000098H.0 SFRSYM    DATA     BIT       RI
      000000D0H.3 SFRSYM    DATA     BIT       RS0
      000000D0H.4 SFRSYM    DATA     BIT       RS1
      000000B0H.0 SFRSYM    DATA     BIT       RXD
      00000098H.7 SFRSYM    DATA     BIT       SM0
      00000098H.6 SFRSYM    DATA     BIT       SM1
      00000098H.5 SFRSYM    DATA     BIT       SM2
      000000B0H.4 SFRSYM    DATA     BIT       T0
      000000B0H.5 SFRSYM    DATA     BIT       T1
      00000090H.0 SFRSYM    DATA     BIT       T2
      00000090H.1 SFRSYM    DATA     BIT       T2EX
      00000098H.3 SFRSYM    DATA     BIT       TB8
      000000C8H.4 SFRSYM    DATA     BIT       TCLK
      00000088H.5 SFRSYM    DATA     BIT       TF0
      00000088H.7 SFRSYM    DATA     BIT       TF1
      000000C8H.7 SFRSYM    DATA     BIT       TF2
      00000098H.1 SFRSYM    DATA     BIT       TI
L251 LINKER/LOCATER V4.66.93.0                                                        01/04/2022  17:06:11  PAGE 34


      00000088H.4 SFRSYM    DATA     BIT       TR0
      00000088H.6 SFRSYM    DATA     BIT       TR1
      000000C8H.2 SFRSYM    DATA     BIT       TR2
      000000B0H.1 SFRSYM    DATA     BIT       TXD
      000000D0H.1 SFRSYM    DATA     BIT       UD
      000000B0H.6 SFRSYM    DATA     BIT       WR
      000000E0H   SYMBOL    NUMBER   ---       ACC
      00FF7349H   SYMBOL    CODE     ---       ASM_MEMSET?0
      00FF7352H   SYMBOL    CODE     ---       ASM_MEMSET?1
      00FF7358H   SYMBOL    CODE     ---       ASM_MEMSET?2
      00FF7372H   SYMBOL    CODE     ---       ASM_MEMSET?DEAD?0
      00FF7371H   SYMBOL    CODE     ---       ASM_MEMSET?DONE?
      000000F0H   SYMBOL    NUMBER   ---       B
      000000FAH   SYMBOL    NUMBER   ---       CCAP0H
      000000EAH   SYMBOL    NUMBER   ---       CCAP0L
      000000FBH   SYMBOL    NUMBER   ---       CCAP1H
      000000EBH   SYMBOL    NUMBER   ---       CCAP1L
      000000FCH   SYMBOL    NUMBER   ---       CCAP2H
      000000ECH   SYMBOL    NUMBER   ---       CCAP2L
      000000FDH   SYMBOL    NUMBER   ---       CCAP3H
      000000EDH   SYMBOL    NUMBER   ---       CCAP3L
      000000FEH   SYMBOL    NUMBER   ---       CCAP4H
      000000EEH   SYMBOL    NUMBER   ---       CCAP4L
      000000DAH   SYMBOL    NUMBER   ---       CCAPM0
      000000DBH   SYMBOL    NUMBER   ---       CCAPM1
      000000DCH   SYMBOL    NUMBER   ---       CCAPM2
      000000DDH   SYMBOL    NUMBER   ---       CCAPM3
      000000DEH   SYMBOL    NUMBER   ---       CCAPM4
      000000D8H   SYMBOL    NUMBER   ---       CCON
      000000F9H   SYMBOL    NUMBER   ---       CH
      000000E9H   SYMBOL    NUMBER   ---       CL
      000000D9H   SYMBOL    NUMBER   ---       CMOD
      00000083H   SYMBOL    NUMBER   ---       DPH
      00000082H   SYMBOL    NUMBER   ---       DPL
      00000084H   SYMBOL    NUMBER   ---       DPXL
      000000A8H   SYMBOL    NUMBER   ---       IE0
      000000B7H   SYMBOL    NUMBER   ---       IPH0
      000000B8H   SYMBOL    NUMBER   ---       IPL0
      00000080H   SYMBOL    NUMBER   ---       P0
      00000090H   SYMBOL    NUMBER   ---       P1
      000000A0H   SYMBOL    NUMBER   ---       P2
      000000B0H   SYMBOL    NUMBER   ---       P3
      00000087H   SYMBOL    NUMBER   ---       PCON
      000000D0H   SYMBOL    NUMBER   ---       PSW
      000000D1H   SYMBOL    NUMBER   ---       PSW1
      000000CBH   SYMBOL    NUMBER   ---       RCAP2H
      000000CAH   SYMBOL    NUMBER   ---       RCAP2L
      000000A9H   SYMBOL    NUMBER   ---       SADDR
      000000B9H   SYMBOL    NUMBER   ---       SADEN
      00000099H   SYMBOL    NUMBER   ---       SBUF
      00000098H   SYMBOL    NUMBER   ---       SCON
      00000081H   SYMBOL    NUMBER   ---       SP
      000000BEH   SYMBOL    NUMBER   ---       SPH
      000000C8H   SYMBOL    NUMBER   ---       T2CON
      000000C9H   SYMBOL    NUMBER   ---       T2MOD
      00000088H   SYMBOL    NUMBER   ---       TCON
      0000008CH   SYMBOL    NUMBER   ---       TH0
      0000008DH   SYMBOL    NUMBER   ---       TH1
      000000CDH   SYMBOL    NUMBER   ---       TH2
      0000008AH   SYMBOL    NUMBER   ---       TL0
      0000008BH   SYMBOL    NUMBER   ---       TL1
      000000CCH   SYMBOL    NUMBER   ---       TL2
      00000089H   SYMBOL    NUMBER   ---       TMOD
      000000A7H   SYMBOL    NUMBER   ---       WCON
      000000A6H   SYMBOL    NUMBER   ---       WDTRST
L251 LINKER/LOCATER V4.66.93.0                                                        01/04/2022  17:06:11  PAGE 35



      00FF7335H   BLOCK     CODE     NEAR LAB  LVL=0
      00FF7335H   LINE      CODE     ---       #22
      00FF7337H   LINE      CODE     ---       #23
      00FF7339H   LINE      CODE     ---       #24
      00FF733BH   LINE      CODE     ---       #25
      00FF733DH   LINE      CODE     ---       #26
      00FF7341H   LINE      CODE     ---       #27
      00FF7343H   LINE      CODE     ---       #28
      00FF7345H   LINE      CODE     ---       #29
      00FF7347H   LINE      CODE     ---       #30
      00FF7349H   LINE      CODE     ---       #32
      00FF734CH   LINE      CODE     ---       #33
      00FF734EH   LINE      CODE     ---       #34
      00FF7350H   LINE      CODE     ---       #35
      00FF7352H   LINE      CODE     ---       #37
      00FF7354H   LINE      CODE     ---       #38
      00FF7356H   LINE      CODE     ---       #39
      00FF7358H   LINE      CODE     ---       #41
      00FF735BH   LINE      CODE     ---       #42
      00FF735FH   LINE      CODE     ---       #43
      00FF7363H   LINE      CODE     ---       #44
      00FF7367H   LINE      CODE     ---       #45
      00FF736BH   LINE      CODE     ---       #46
      00FF736FH   LINE      CODE     ---       #47
      00FF7371H   LINE      CODE     ---       #49
      00FF7372H   LINE      CODE     ---       #52
      00FF7374H   LINE      CODE     ---       #53
      ---         BLOCKEND  ---      ---       LVL=0

      ---         MODULE    ---      ---       SYS_MEM2
      00FF685FH   PUBLIC    CODE     ---       ASM_MEMCPY
      000000D0H.6 SFRSYM    DATA     BIT       AC
      000000D8H.0 SFRSYM    DATA     BIT       CCF0
      000000D8H.1 SFRSYM    DATA     BIT       CCF1
      000000D8H.2 SFRSYM    DATA     BIT       CCF2
      000000D8H.3 SFRSYM    DATA     BIT       CCF3
      000000D8H.4 SFRSYM    DATA     BIT       CCF4
      00000090H.3 SFRSYM    DATA     BIT       CEX0
      00000090H.4 SFRSYM    DATA     BIT       CEX1
      00000090H.5 SFRSYM    DATA     BIT       CEX2
      00000090H.6 SFRSYM    DATA     BIT       CEX3
      00000090H.7 SFRSYM    DATA     BIT       CEX4
      000000D8H.7 SFRSYM    DATA     BIT       CF
      000000C8H.0 SFRSYM    DATA     BIT       CP_RL2
      000000D8H.6 SFRSYM    DATA     BIT       CR
      000000D0H.7 SFRSYM    DATA     BIT       CY
      000000C8H.1 SFRSYM    DATA     BIT       C_T2
      000000A8H.7 SFRSYM    DATA     BIT       EA
      000000A8H.6 SFRSYM    DATA     BIT       EC
      00000090H.2 SFRSYM    DATA     BIT       ECI
      000000A8H.4 SFRSYM    DATA     BIT       ES
      000000A8H.1 SFRSYM    DATA     BIT       ET0
      000000A8H.3 SFRSYM    DATA     BIT       ET1
      000000A8H.5 SFRSYM    DATA     BIT       ET2
      000000A8H.0 SFRSYM    DATA     BIT       EX0
      000000A8H.2 SFRSYM    DATA     BIT       EX1
      000000C8H.3 SFRSYM    DATA     BIT       EXEN2
      000000C8H.6 SFRSYM    DATA     BIT       EXF2
      000000D0H.5 SFRSYM    DATA     BIT       F0
      00000098H.7 SFRSYM    DATA     BIT       FE
      00000088H.1 SFRSYM    DATA     BIT       IE0_
      00000088H.3 SFRSYM    DATA     BIT       IE1_
      000000B0H.2 SFRSYM    DATA     BIT       INT0
      000000B0H.3 SFRSYM    DATA     BIT       INT1
L251 LINKER/LOCATER V4.66.93.0                                                        01/04/2022  17:06:11  PAGE 36


      00000088H.0 SFRSYM    DATA     BIT       IT0
      00000088H.2 SFRSYM    DATA     BIT       IT1
      000000D0H.2 SFRSYM    DATA     BIT       OV
      000000D0H.0 SFRSYM    DATA     BIT       P
      000000B8H.6 SFRSYM    DATA     BIT       PPC
      000000B8H.4 SFRSYM    DATA     BIT       PS
      000000B8H.1 SFRSYM    DATA     BIT       PT0
      000000B8H.3 SFRSYM    DATA     BIT       PT1
      000000B8H.5 SFRSYM    DATA     BIT       PT2
      000000B8H.0 SFRSYM    DATA     BIT       PX0
      000000B8H.2 SFRSYM    DATA     BIT       PX1
      00000098H.2 SFRSYM    DATA     BIT       RB8
      000000C8H.5 SFRSYM    DATA     BIT       RCLK
      000000B0H.7 SFRSYM    DATA     BIT       RD
      00000098H.4 SFRSYM    DATA     BIT       REN
      00000098H.0 SFRSYM    DATA     BIT       RI
      000000D0H.3 SFRSYM    DATA     BIT       RS0
      000000D0H.4 SFRSYM    DATA     BIT       RS1
      000000B0H.0 SFRSYM    DATA     BIT       RXD
      00000098H.7 SFRSYM    DATA     BIT       SM0
      00000098H.6 SFRSYM    DATA     BIT       SM1
      00000098H.5 SFRSYM    DATA     BIT       SM2
      000000B0H.4 SFRSYM    DATA     BIT       T0
      000000B0H.5 SFRSYM    DATA     BIT       T1
      00000090H.0 SFRSYM    DATA     BIT       T2
      00000090H.1 SFRSYM    DATA     BIT       T2EX
      00000098H.3 SFRSYM    DATA     BIT       TB8
      000000C8H.4 SFRSYM    DATA     BIT       TCLK
      00000088H.5 SFRSYM    DATA     BIT       TF0
      00000088H.7 SFRSYM    DATA     BIT       TF1
      000000C8H.7 SFRSYM    DATA     BIT       TF2
      00000098H.1 SFRSYM    DATA     BIT       TI
      00000088H.4 SFRSYM    DATA     BIT       TR0
      00000088H.6 SFRSYM    DATA     BIT       TR1
      000000C8H.2 SFRSYM    DATA     BIT       TR2
      000000B0H.1 SFRSYM    DATA     BIT       TXD
      000000D0H.1 SFRSYM    DATA     BIT       UD
      000000B0H.6 SFRSYM    DATA     BIT       WR
      000000E0H   SYMBOL    NUMBER   ---       ACC
      00FF6877H   SYMBOL    CODE     ---       ASM_MEMCPY?0
      00FF6885H   SYMBOL    CODE     ---       ASM_MEMCPY?1
      00FF6889H   SYMBOL    CODE     ---       ASM_MEMCPY?2
      00FF68B6H   SYMBOL    CODE     ---       ASM_MEMCPY?DEAD?0
      00FF68BAH   SYMBOL    CODE     ---       ASM_MEMCPY?DEAD?1
      00FF68B5H   SYMBOL    CODE     ---       ASM_MEMCPY?DONE?
      000000F0H   SYMBOL    NUMBER   ---       B
      000000FAH   SYMBOL    NUMBER   ---       CCAP0H
      000000EAH   SYMBOL    NUMBER   ---       CCAP0L
      000000FBH   SYMBOL    NUMBER   ---       CCAP1H
      000000EBH   SYMBOL    NUMBER   ---       CCAP1L
      000000FCH   SYMBOL    NUMBER   ---       CCAP2H
      000000ECH   SYMBOL    NUMBER   ---       CCAP2L
      000000FDH   SYMBOL    NUMBER   ---       CCAP3H
      000000EDH   SYMBOL    NUMBER   ---       CCAP3L
      000000FEH   SYMBOL    NUMBER   ---       CCAP4H
      000000EEH   SYMBOL    NUMBER   ---       CCAP4L
      000000DAH   SYMBOL    NUMBER   ---       CCAPM0
      000000DBH   SYMBOL    NUMBER   ---       CCAPM1
      000000DCH   SYMBOL    NUMBER   ---       CCAPM2
      000000DDH   SYMBOL    NUMBER   ---       CCAPM3
      000000DEH   SYMBOL    NUMBER   ---       CCAPM4
      000000D8H   SYMBOL    NUMBER   ---       CCON
      000000F9H   SYMBOL    NUMBER   ---       CH
      000000E9H   SYMBOL    NUMBER   ---       CL
      000000D9H   SYMBOL    NUMBER   ---       CMOD
L251 LINKER/LOCATER V4.66.93.0                                                        01/04/2022  17:06:11  PAGE 37


      00000083H   SYMBOL    NUMBER   ---       DPH
      00000082H   SYMBOL    NUMBER   ---       DPL
      00000084H   SYMBOL    NUMBER   ---       DPXL
      000000A8H   SYMBOL    NUMBER   ---       IE0
      000000B7H   SYMBOL    NUMBER   ---       IPH0
      000000B8H   SYMBOL    NUMBER   ---       IPL0
      00000080H   SYMBOL    NUMBER   ---       P0
      00000090H   SYMBOL    NUMBER   ---       P1
      000000A0H   SYMBOL    NUMBER   ---       P2
      000000B0H   SYMBOL    NUMBER   ---       P3
      00000087H   SYMBOL    NUMBER   ---       PCON
      000000D0H   SYMBOL    NUMBER   ---       PSW
      000000D1H   SYMBOL    NUMBER   ---       PSW1
      000000CBH   SYMBOL    NUMBER   ---       RCAP2H
      000000CAH   SYMBOL    NUMBER   ---       RCAP2L
      000000A9H   SYMBOL    NUMBER   ---       SADDR
      000000B9H   SYMBOL    NUMBER   ---       SADEN
      00000099H   SYMBOL    NUMBER   ---       SBUF
      00000098H   SYMBOL    NUMBER   ---       SCON
      00000081H   SYMBOL    NUMBER   ---       SP
      000000BEH   SYMBOL    NUMBER   ---       SPH
      000000C8H   SYMBOL    NUMBER   ---       T2CON
      000000C9H   SYMBOL    NUMBER   ---       T2MOD
      00000088H   SYMBOL    NUMBER   ---       TCON
      0000008CH   SYMBOL    NUMBER   ---       TH0
      0000008DH   SYMBOL    NUMBER   ---       TH1
      000000CDH   SYMBOL    NUMBER   ---       TH2
      0000008AH   SYMBOL    NUMBER   ---       TL0
      0000008BH   SYMBOL    NUMBER   ---       TL1
      000000CCH   SYMBOL    NUMBER   ---       TL2
      00000089H   SYMBOL    NUMBER   ---       TMOD
      000000A7H   SYMBOL    NUMBER   ---       WCON
      000000A6H   SYMBOL    NUMBER   ---       WDTRST

      00FF685FH   BLOCK     CODE     NEAR LAB  LVL=0
      00FF685FH   LINE      CODE     ---       #25
      00FF6861H   LINE      CODE     ---       #26
      00FF6863H   LINE      CODE     ---       #28
      00FF6865H   LINE      CODE     ---       #29
      00FF6867H   LINE      CODE     ---       #31
      00FF6869H   LINE      CODE     ---       #32
      00FF686BH   LINE      CODE     ---       #33
      00FF686FH   LINE      CODE     ---       #34
      00FF6871H   LINE      CODE     ---       #35
      00FF6873H   LINE      CODE     ---       #36
      00FF6875H   LINE      CODE     ---       #45
      00FF6877H   LINE      CODE     ---       #48
      00FF687AH   LINE      CODE     ---       #49
      00FF687DH   LINE      CODE     ---       #50
      00FF687FH   LINE      CODE     ---       #51
      00FF6881H   LINE      CODE     ---       #52
      00FF6883H   LINE      CODE     ---       #53
      00FF6885H   LINE      CODE     ---       #56
      00FF6887H   LINE      CODE     ---       #57
      00FF6889H   LINE      CODE     ---       #60
      00FF688CH   LINE      CODE     ---       #61
      00FF688FH   LINE      CODE     ---       #62
      00FF6893H   LINE      CODE     ---       #63
      00FF6897H   LINE      CODE     ---       #64
      00FF689BH   LINE      CODE     ---       #65
      00FF689FH   LINE      CODE     ---       #66
      00FF68A3H   LINE      CODE     ---       #67
      00FF68A7H   LINE      CODE     ---       #68
      00FF68ABH   LINE      CODE     ---       #69
      00FF68AFH   LINE      CODE     ---       #70
L251 LINKER/LOCATER V4.66.93.0                                                        01/04/2022  17:06:11  PAGE 38


      00FF68B3H   LINE      CODE     ---       #71
      00FF68B5H   LINE      CODE     ---       #74
      00FF68B6H   LINE      CODE     ---       #77
      00FF68B8H   LINE      CODE     ---       #78
      00FF68BAH   LINE      CODE     ---       #80
      00FF68BCH   LINE      CODE     ---       #81
      ---         BLOCKEND  ---      ---       LVL=0

      ---         MODULE    ---      ---       sys_qctrl
      00FF5E33H   PUBLIC    CODE     ---       Q_Init
      00FF82BFH   PUBLIC    CODE     ---       Q_MemFreeCount
      00FF80C8H   PUBLIC    CODE     ---       Q_MemAlloc
      00FF8743H   PUBLIC    CODE     ---       Q_MemFree
      00FF81BDH   PUBLIC    CODE     ---       Q_MemGet
      00FF8423H   PUBLIC    CODE     ---       Q_QGet
      00FF8750H   PUBLIC    CODE     ---       Q_QNumGet
      00FF8439H   PUBLIC    CODE     ---       Q_QLenGet
      00FF81DAH   PUBLIC    CODE     ---       Q_QFree
      00FF38E9H   PUBLIC    CODE     ---       Q_QPushBack
      00FF3C1FH   PUBLIC    CODE     ---       Q_QPushFront
      00FF560FH   PUBLIC    CODE     ---       Q_QMoveBack
      00FF75AEH   PUBLIC    CODE     ---       Q_QChageType
      00FF4AFEH   PUBLIC    CODE     ---       Q_QRemove
      0000A88DH   PUBLIC    EDATA    ---       sQCtrl
      0000A899H   PUBLIC    EDATA    ---       sQHeader
      0000A8F9H   PUBLIC    EDATA    ---       sQPayload
      000000A8H.7 SFRSYM    DATA     BIT       EA

      00FF5E33H   BLOCK     CODE     ---       LVL=0
      REG=4       REGSYM    ---      ---       pQCtrl
      REG=2       REGSYM    ---      ---       pQHeader
      R6          REGSYM    ---      BYTE      qType
      R7          REGSYM    ---      BYTE      qIdx
      00FF5E33H   LINE      CODE     ---       #32
      00FF5E33H   LINE      CODE     ---       #33
      00FF5E33H   LINE      CODE     ---       #39
      00FF5E35H   LINE      CODE     ---       #41
      00FF5E3EH   LINE      CODE     ---       #42
      00FF5E43H   LINE      CODE     ---       #43
      00FF5E47H   LINE      CODE     ---       #44
      00FF5E4CH   LINE      CODE     ---       #45
      00FF5E52H   LINE      CODE     ---       #48
      00FF5E54H   LINE      CODE     ---       #50
      00FF5E5DH   LINE      CODE     ---       #51
      00FF5E5FH   LINE      CODE     ---       #53
      00FF5E6DH   LINE      CODE     ---       #54
      00FF5E78H   LINE      CODE     ---       #55
      00FF5E84H   LINE      CODE     ---       #56
      00FF5E8AH   LINE      CODE     ---       #57
      00FF5E90H   LINE      CODE     ---       #60
      00FF5E92H   LINE      CODE     ---       #62
      00FF5E9CH   LINE      CODE     ---       #63
      00FF5EA3H   LINE      CODE     ---       #64
      ---         BLOCKEND  ---      ---       LVL=0

      00FF82BFH   BLOCK     CODE     ---       LVL=0
      R6          REGSYM    ---      BYTE      qIdx
      R7          REGSYM    ---      BYTE      freeCnt
      00FF82BFH   LINE      CODE     ---       #66
      00FF82BFH   LINE      CODE     ---       #67
      00FF82BFH   LINE      CODE     ---       #69
      00FF82C1H   LINE      CODE     ---       #72
      00FF82C3H   LINE      CODE     ---       #74
      00FF82CDH   LINE      CODE     ---       #76
      00FF82CFH   LINE      CODE     ---       #77
L251 LINKER/LOCATER V4.66.93.0                                                        01/04/2022  17:06:11  PAGE 39


      00FF82D6H   LINE      CODE     ---       #80
      00FF82D8H   LINE      CODE     ---       #81
      ---         BLOCKEND  ---      ---       LVL=0

      00FF80C8H   BLOCK     CODE     ---       LVL=0
      R7          REGSYM    ---      BYTE      qIdx
      00FF80C8H   LINE      CODE     ---       #83
      00FF80C8H   LINE      CODE     ---       #84
      00FF80C8H   LINE      CODE     ---       #88
      00FF80CAH   LINE      CODE     ---       #90
      00FF80D5H   LINE      CODE     ---       #92
      00FF80DBH   LINE      CODE     ---       #93
      00FF80DDH   LINE      CODE     ---       #94
      00FF80E4H   LINE      CODE     ---       #100
      00FF80E6H   LINE      CODE     ---       #101
      ---         BLOCKEND  ---      ---       LVL=0

      00FF8743H   BLOCK     CODE     ---       LVL=0
      R5          REGSYM    ---      BYTE      qIdx
      00FF8743H   LINE      CODE     ---       #103
      00FF8745H   LINE      CODE     ---       #108
      00FF874FH   LINE      CODE     ---       #109
      ---         BLOCKEND  ---      ---       LVL=0

      00FF81BDH   BLOCK     CODE     ---       LVL=0
      R15         REGSYM    ---      BYTE      qIdx
      00FF81BDH   LINE      CODE     ---       #111
      00FF81C1H   LINE      CODE     ---       #115
      00FF81CEH   LINE      CODE     ---       #117
      00FF81D7H   LINE      CODE     ---       #118
      ---         BLOCKEND  ---      ---       LVL=0

      00FF8423H   BLOCK     CODE     ---       LVL=0
      WR2         REGSYM    ---      INT       qType
      00FF8423H   LINE      CODE     ---       #120
      00FF8425H   LINE      CODE     ---       #125
      00FF8438H   LINE      CODE     ---       #126
      ---         BLOCKEND  ---      ---       LVL=0

      00FF8750H   BLOCK     CODE     ---       LVL=0
      WR2         REGSYM    ---      INT       qType
      00FF8750H   LINE      CODE     ---       #128
      00FF8752H   LINE      CODE     ---       #133
      00FF875CH   LINE      CODE     ---       #134
      ---         BLOCKEND  ---      ---       LVL=0

      00FF8439H   BLOCK     CODE     ---       LVL=0
      WR2         REGSYM    ---      INT       qType
      00FF8439H   LINE      CODE     ---       #136
      00FF843BH   LINE      CODE     ---       #140
      00FF844EH   LINE      CODE     ---       #141
      ---         BLOCKEND  ---      ---       LVL=0

      00FF4AFEH   BLOCK     CODE     ---       LVL=0
      WR2         REGSYM    ---      INT       qType
      R1          REGSYM    ---      BYTE      bKeepMem
      00FF4B02H   BLOCK     CODE     NEAR LAB  LVL=1
      REG=4       REGSYM    ---      ---       pQCtrl
      REG=2       REGSYM    ---      ---       pQHeader
      R0          REGSYM    ---      BYTE      nextNode
      ---         BLOCKEND  ---      ---       LVL=1
      00FF4AFEH   LINE      CODE     ---       #143
      00FF4B02H   LINE      CODE     ---       #147
      00FF4B02H   LINE      CODE     ---       #148
      00FF4B0EH   LINE      CODE     ---       #149
L251 LINKER/LOCATER V4.66.93.0                                                        01/04/2022  17:06:11  PAGE 40


      00FF4B1AH   LINE      CODE     ---       #152
      00FF4B1CH   LINE      CODE     ---       #156
      00FF4B2AH   LINE      CODE     ---       #157
      00FF4B2FH   LINE      CODE     ---       #158
      00FF4B3DH   LINE      CODE     ---       #161
      00FF4B4CH   LINE      CODE     ---       #162
      00FF4B5DH   LINE      CODE     ---       #163
      00FF4B6BH   LINE      CODE     ---       #166
      00FF4B6FH   LINE      CODE     ---       #167
      00FF4B7DH   LINE      CODE     ---       #170
      00FF4B88H   LINE      CODE     ---       #171
      00FF4B8BH   LINE      CODE     ---       #172
      00FF4B91H   LINE      CODE     ---       #173
      00FF4B97H   LINE      CODE     ---       #174
      00FF4B99H   LINE      CODE     ---       #175
      ---         BLOCKEND  ---      ---       LVL=0

      00FF81DAH   BLOCK     CODE     ---       LVL=0
      WR2         REGSYM    ---      INT       qType
      00FF81DCH   BLOCK     CODE     NEAR LAB  LVL=1
      REG=0       REGSYM    ---      ---       pQCtrl
      ---         BLOCKEND  ---      ---       LVL=1
      00FF81DAH   LINE      CODE     ---       #177
      00FF81DCH   LINE      CODE     ---       #180
      00FF81DCH   LINE      CODE     ---       #181
      00FF81E8H   LINE      CODE     ---       #184
      00FF81F0H   LINE      CODE     ---       #185
      00FF81F0H   LINE      CODE     ---       #188
      00FF81F6H   LINE      CODE     ---       #189
      ---         BLOCKEND  ---      ---       LVL=0

      00FF38E9H   BLOCK     CODE     ---       LVL=0
      WR12        REGSYM    ---      INT       qType
      R15         REGSYM    ---      BYTE      qIdx
      0000ACAAH   SYMBOL    EDATA    WORD      dataLen
      00FF38F5H   BLOCK     CODE     NEAR LAB  LVL=1
      0000ACACH   SYMBOL    EDATA    ---       pQCtrl
      0000ACAEH   SYMBOL    EDATA    ---       pQHeader
      0000ACB0H   SYMBOL    EDATA    ---       pQ_PAYLOAD
      ---         BLOCKEND  ---      ---       LVL=1
      00FF38E9H   LINE      CODE     ---       #191
      00FF38F5H   LINE      CODE     ---       #196
      00FF38F5H   LINE      CODE     ---       #197
      00FF3903H   LINE      CODE     ---       #198
      00FF3917H   LINE      CODE     ---       #199
      00FF3924H   LINE      CODE     ---       #202
      00FF3931H   LINE      CODE     ---       #207
      00FF3942H   LINE      CODE     ---       #209
      00FF3944H   LINE      CODE     ---       #210
      00FF394DH   LINE      CODE     ---       #211
      00FF395DH   LINE      CODE     ---       #212
      00FF3967H   LINE      CODE     ---       #217
      00FF3974H   LINE      CODE     ---       #218
      00FF3985H   LINE      CODE     ---       #221
      00FF398DH   LINE      CODE     ---       #222
      00FF3997H   LINE      CODE     ---       #223
      00FF399AH   LINE      CODE     ---       #226
      00FF39A6H   LINE      CODE     ---       #228
      00FF39B3H   LINE      CODE     ---       #229
      00FF39B5H   LINE      CODE     ---       #230
      ---         BLOCKEND  ---      ---       LVL=0

      00FF3C1FH   BLOCK     CODE     ---       LVL=0
      WR8         REGSYM    ---      INT       qType
      R15         REGSYM    ---      BYTE      qIdx
L251 LINKER/LOCATER V4.66.93.0                                                        01/04/2022  17:06:11  PAGE 41


      WR12        REGSYM    ---      WORD      dataLen
      00FF3C29H   BLOCK     CODE     NEAR LAB  LVL=1
      0000ACBFH   SYMBOL    EDATA    ---       pQCtrl
      0000ACC1H   SYMBOL    EDATA    ---       pQHeader
      0000ACC3H   SYMBOL    EDATA    ---       pQ_PAYLOAD
      ---         BLOCKEND  ---      ---       LVL=1
      00FF3C1FH   LINE      CODE     ---       #232
      00FF3C29H   LINE      CODE     ---       #237
      00FF3C29H   LINE      CODE     ---       #238
      00FF3C39H   LINE      CODE     ---       #239
      00FF3C4DH   LINE      CODE     ---       #240
      00FF3C5AH   LINE      CODE     ---       #243
      00FF3C67H   LINE      CODE     ---       #248
      00FF3C78H   LINE      CODE     ---       #250
      00FF3C7AH   LINE      CODE     ---       #251
      00FF3C83H   LINE      CODE     ---       #252
      00FF3C8DH   LINE      CODE     ---       #253
      00FF3C9CH   LINE      CODE     ---       #258
      00FF3CA8H   LINE      CODE     ---       #259
      00FF3CB5H   LINE      CODE     ---       #262
      00FF3CC2H   LINE      CODE     ---       #263
      00FF3CC9H   LINE      CODE     ---       #264
      00FF3CD4H   LINE      CODE     ---       #265
      00FF3CD8H   LINE      CODE     ---       #268
      00FF3CE0H   LINE      CODE     ---       #269
      00FF3CE2H   LINE      CODE     ---       #270
      ---         BLOCKEND  ---      ---       LVL=0

      00FF560FH   BLOCK     CODE     ---       LVL=0
      WR2         REGSYM    ---      INT       qType
      00FF5611H   BLOCK     CODE     NEAR LAB  LVL=1
      REG=0       REGSYM    ---      ---       pQCtrl
      REG=1       REGSYM    ---      ---       pQHeader
      R7          REGSYM    ---      BYTE      nextNode
      ---         BLOCKEND  ---      ---       LVL=1
      00FF560FH   LINE      CODE     ---       #272
      00FF5611H   LINE      CODE     ---       #275
      00FF5611H   LINE      CODE     ---       #276
      00FF561DH   LINE      CODE     ---       #277
      00FF5629H   LINE      CODE     ---       #281
      00FF5631H   LINE      CODE     ---       #282
      00FF5631H   LINE      CODE     ---       #287
      00FF563CH   LINE      CODE     ---       #288
      00FF5641H   LINE      CODE     ---       #289
      00FF564FH   LINE      CODE     ---       #294
      00FF5661H   LINE      CODE     ---       #295
      00FF5672H   LINE      CODE     ---       #300
      00FF5684H   LINE      CODE     ---       #303
      00FF568BH   LINE      CODE     ---       #304
      00FF568EH   LINE      CODE     ---       #305
      ---         BLOCKEND  ---      ---       LVL=0

      00FF75AEH   BLOCK     CODE     ---       LVL=0
      WR12        REGSYM    ---      INT       qTypeDest
      WR14        REGSYM    ---      INT       qTypeSrc
      00FF75B4H   BLOCK     CODE     NEAR LAB  LVL=1
      REG=3       REGSYM    ---      ---       pQSrcCtrl
      0000AD1FH   SYMBOL    EDATA    BYTE      qIdx
      0000AD20H   SYMBOL    EDATA    WORD      qLen
      ---         BLOCKEND  ---      ---       LVL=1
      00FF75AEH   LINE      CODE     ---       #307
      00FF75B4H   LINE      CODE     ---       #311
      00FF75B4H   LINE      CODE     ---       #312
      00FF75BEH   LINE      CODE     ---       #317
      00FF75C6H   LINE      CODE     ---       #318
L251 LINKER/LOCATER V4.66.93.0                                                        01/04/2022  17:06:11  PAGE 42


      00FF75C6H   LINE      CODE     ---       #321
      00FF75CAH   LINE      CODE     ---       #322
      00FF75D3H   LINE      CODE     ---       #325
      00FF75DAH   LINE      CODE     ---       #328
      00FF75E7H   LINE      CODE     ---       #329
      ---         BLOCKEND  ---      ---       LVL=0

      ---         MODULE    ---      ---       sys_rtc
      00FF8324H   PUBLIC    CODE     ---       RTC_ClkGet
      00FF80E7H   PUBLIC    CODE     ---       RTC_uDelay
      00FF8861H   PUBLIC    CODE     ---       RTC_TickGapCount
      00FF5C67H   PUBLIC    CODE     ---       RTC_TimerConfig
      00FF854FH   PUBLIC    CODE     ---       RTC_TimerWakeUpDisable
      00FF8823H   PUBLIC    CODE     ---       RTC_WaitForTriggered
      00FF7EB9H   PUBLIC    CODE     ---       RTC_TriggerWithinUs
      00FF8288H   PUBLIC    CODE     ---       RTC_IsrHdlrInit
      00FF5CDBH   PUBLIC    CODE     ---       RTC_Init
      00FF853BH   PUBLIC    CODE     ---       RTC_IsrHdlr
      0000ACC5H   PUBLIC    EDATA    ---       gSysRtcHdlrTable
      00FF886EH   SYMBOL    CODE     ---       Rtc_NullHdlr
      0000ACC7H   SYMBOL    EDATA    DWORD     rtcNextAnchor

      00FF886EH   BLOCK     CODE     ---       LVL=0
      00FF886EH   LINE      CODE     ---       #39
      00FF886EH   LINE      CODE     ---       #40
      00FF886EH   LINE      CODE     ---       #41
      ---         BLOCKEND  ---      ---       LVL=0

      00FF853BH   BLOCK     CODE     ---       LVL=0
      R11         REGSYM    ---      BYTE      intSts
      00FF853BH   LINE      CODE     ---       #44
      00FF853BH   LINE      CODE     ---       #47
      00FF853EH   LINE      CODE     ---       #48
      00FF8544H   LINE      CODE     ---       #51
      00FF854AH   LINE      CODE     ---       #53
      00FF854BH   LINE      CODE     ---       #55
      00FF854FH   LINE      CODE     ---       #56
      00FF854FH   LINE      CODE     ---       #58
      ---         BLOCKEND  ---      ---       LVL=0

      00FF8324H   BLOCK     CODE     ---       LVL=0
      00FF8324H   LINE      CODE     ---       #65
      00FF8324H   LINE      CODE     ---       #66
      00FF8330H   LINE      CODE     ---       #67
      00FF833BH   LINE      CODE     ---       #68
      ---         BLOCKEND  ---      ---       LVL=0

      00FF80E7H   BLOCK     CODE     ---       LVL=0
      DR12        REGSYM    ---      DWORD     delayUs
      00FF80EBH   BLOCK     CODE     NEAR LAB  LVL=1
      0000ACEBH   SYMBOL    EDATA    DWORD     clkA
      DR12        REGSYM    ---      DWORD     clkB
      ---         BLOCKEND  ---      ---       LVL=1
      00FF80E7H   LINE      CODE     ---       #72
      00FF80EBH   LINE      CODE     ---       #105
      00FF80F0H   LINE      CODE     ---       #106
      00FF80F0H   LINE      CODE     ---       #107
      00FF80F9H   LINE      CODE     ---       #108
      00FF8103H   LINE      CODE     ---       #110
      ---         BLOCKEND  ---      ---       LVL=0

      00FF8861H   BLOCK     CODE     ---       LVL=0
      DR4         REGSYM    ---      DWORD     clkA
      DR8         REGSYM    ---      DWORD     clkB
      00FF8861H   LINE      CODE     ---       #114
L251 LINKER/LOCATER V4.66.93.0                                                        01/04/2022  17:06:11  PAGE 43


      00FF8863H   LINE      CODE     ---       #123
      00FF8867H   LINE      CODE     ---       #125
      ---         BLOCKEND  ---      ---       LVL=0

      00FF5C67H   BLOCK     CODE     ---       LVL=0
      R10         REGSYM    ---      BYTE      mode
      DR28        REGSYM    ---      DWORD     rtcValue
      DR24        REGSYM    ---      DWORD     rtcInterval
      00FF5C67H   LINE      CODE     ---       #128
      00FF5C6DH   LINE      CODE     ---       #131
      00FF5C87H   LINE      CODE     ---       #134
      00FF5C92H   LINE      CODE     ---       #137
      00FF5C97H   LINE      CODE     ---       #138
      00FF5CA2H   LINE      CODE     ---       #139
      00FF5CA2H   LINE      CODE     ---       #142
      00FF5CAEH   LINE      CODE     ---       #145
      00FF5CCAH   LINE      CODE     ---       #147
      00FF5CD6H   LINE      CODE     ---       #148
      00FF5CDAH   LINE      CODE     ---       #149
      ---         BLOCKEND  ---      ---       LVL=0

      00FF854FH   BLOCK     CODE     ---       LVL=0
      00FF854FH   LINE      CODE     ---       #154
      00FF854FH   LINE      CODE     ---       #156
      00FF855BH   LINE      CODE     ---       #159
      00FF8561H   LINE      CODE     ---       #161
      ---         BLOCKEND  ---      ---       LVL=0

      00FF8823H   BLOCK     CODE     ---       LVL=0
      00FF8823H   LINE      CODE     ---       #165
      00FF8823H   LINE      CODE     ---       #167
      00FF8823H   LINE      CODE     ---       #168
      00FF8824H   LINE      CODE     ---       #169
      00FF882CH   LINE      CODE     ---       #170
      ---         BLOCKEND  ---      ---       LVL=0

      00FF7EB9H   BLOCK     CODE     ---       LVL=0
      DR12        REGSYM    ---      DWORD     Time
      00FF7EB9H   LINE      CODE     ---       #173
      00FF7EBDH   LINE      CODE     ---       #175
      00FF7EDCH   LINE      CODE     ---       #176
      ---         BLOCKEND  ---      ---       LVL=0

      00FF8288H   BLOCK     CODE     ---       LVL=0
      REG=7       REGSYM    ---      ---       intHdlr
      00FF8288H   LINE      CODE     ---       #180
      00FF828CH   LINE      CODE     ---       #182
      00FF8290H   LINE      CODE     ---       #184
      00FF829DH   LINE      CODE     ---       #185
      00FF82A1H   LINE      CODE     ---       #186
      ---         BLOCKEND  ---      ---       LVL=0

      00FF5CDBH   BLOCK     CODE     ---       LVL=0
      R10         REGSYM    ---      BYTE      rtcUnit
      00FF5CDBH   LINE      CODE     ---       #191
      00FF5CDDH   LINE      CODE     ---       #201
      00FF5CE9H   LINE      CODE     ---       #202
      00FF5CFDH   LINE      CODE     ---       #206
      00FF5D07H   LINE      CODE     ---       #207
      00FF5D1FH   LINE      CODE     ---       #210
      00FF5D23H   LINE      CODE     ---       #213
      00FF5D30H   LINE      CODE     ---       #216
      00FF5D3CH   LINE      CODE     ---       #220
      00FF5D48H   LINE      CODE     ---       #221
      00FF5D4DH   LINE      CODE     ---       #227
L251 LINKER/LOCATER V4.66.93.0                                                        01/04/2022  17:06:11  PAGE 44


      ---         BLOCKEND  ---      ---       LVL=0

      ---         MODULE    ---      ---       common_cmd_hdlr
      00FF875DH   PUBLIC    CODE     ---       CMN_CmdSys_GetRfbFwVer
      00FF704AH   PUBLIC    CODE     ---       CMN_CmdHal_SetAgc
      00FF8681H   PUBLIC    CODE     ---       CMN_CmdHal_SetCalibrationEnable
      00FF6EE2H   PUBLIC    CODE     ---       CMN_CmdHal_SetCalibrationSetting
      00FF74B7H   PUBLIC    CODE     ---       CMN_CmdHal_SetTxpower
      00FF876AH   PUBLIC    CODE     ---       CMN_CmdHal_GetTemperatureRpt
      00FF8777H   PUBLIC    CODE     ---       CMN_CmdHal_GetVoltageRpt

      00FF875DH   BLOCK     CODE     ---       LVL=0
      00FF875DH   LINE      CODE     ---       #23
      00FF875DH   LINE      CODE     ---       #28
      00FF875DH   LINE      CODE     ---       #31
      00FF8767H   LINE      CODE     ---       #34
      ---         BLOCKEND  ---      ---       LVL=0

      00FF704AH   BLOCK     CODE     ---       LVL=0
      REG=7       REGSYM    ---      ---       pCmdAddress
      00FF704EH   BLOCK     CODE     NEAR LAB  LVL=1
      REG=1       REGSYM    ---      ---       pCmdIn
      ---         BLOCKEND  ---      ---       LVL=1
      00FF704AH   LINE      CODE     ---       #37
      00FF704EH   LINE      CODE     ---       #40
      00FF704EH   LINE      CODE     ---       #44
      00FF7069H   LINE      CODE     ---       #47
      00FF706BH   LINE      CODE     ---       #50
      00FF7083H   LINE      CODE     ---       #53
      00FF708DH   LINE      CODE     ---       #54
      ---         BLOCKEND  ---      ---       LVL=0

      00FF8681H   BLOCK     CODE     ---       LVL=0
      00FF8681H   LINE      CODE     ---       #56
      00FF8681H   LINE      CODE     ---       #61
      00FF8681H   LINE      CODE     ---       #64
      00FF8684H   LINE      CODE     ---       #67
      00FF868EH   LINE      CODE     ---       #70
      ---         BLOCKEND  ---      ---       LVL=0

      00FF6EE2H   BLOCK     CODE     ---       LVL=0
      REG=7       REGSYM    ---      ---       pCmdAddress
      00FF6EE6H   BLOCK     CODE     NEAR LAB  LVL=1
      REG=0       REGSYM    ---      ---       pCmdIn
      ---         BLOCKEND  ---      ---       LVL=1
      00FF6EE2H   LINE      CODE     ---       #73
      00FF6EE6H   LINE      CODE     ---       #76
      00FF6EE6H   LINE      CODE     ---       #80
      00FF6F01H   LINE      CODE     ---       #83
      00FF6F03H   LINE      CODE     ---       #86
      00FF6F1EH   LINE      CODE     ---       #89
      00FF6F28H   LINE      CODE     ---       #90
      ---         BLOCKEND  ---      ---       LVL=0

      00FF74B7H   BLOCK     CODE     ---       LVL=0
      REG=7       REGSYM    ---      ---       pCmdAddress
      00FF74BBH   BLOCK     CODE     NEAR LAB  LVL=1
      REG=2       REGSYM    ---      ---       pCmdIn
      ---         BLOCKEND  ---      ---       LVL=1
      00FF74B7H   LINE      CODE     ---       #92
      00FF74BBH   LINE      CODE     ---       #95
      00FF74BBH   LINE      CODE     ---       #99
      00FF74D6H   LINE      CODE     ---       #102
      00FF74D8H   LINE      CODE     ---       #105
      00FF74E8H   LINE      CODE     ---       #107
L251 LINKER/LOCATER V4.66.93.0                                                        01/04/2022  17:06:11  PAGE 45


      00FF74F2H   LINE      CODE     ---       #108
      ---         BLOCKEND  ---      ---       LVL=0

      00FF876AH   BLOCK     CODE     ---       LVL=0
      00FF876AH   LINE      CODE     ---       #110
      00FF876AH   LINE      CODE     ---       #114
      00FF876AH   LINE      CODE     ---       #115
      00FF8774H   LINE      CODE     ---       #116
      ---         BLOCKEND  ---      ---       LVL=0

      00FF8777H   BLOCK     CODE     ---       LVL=0
      00FF8777H   LINE      CODE     ---       #119
      00FF8777H   LINE      CODE     ---       #123
      00FF8777H   LINE      CODE     ---       #124
      00FF8781H   LINE      CODE     ---       #125
      ---         BLOCKEND  ---      ---       LVL=0

      ---         MODULE    ---      ---       common_event_gen
      00FF67FFH   PUBLIC    CODE     ---       CMD_CnfEventSend
      00FF4CCFH   PUBLIC    CODE     ---       CMN_GetFwVerEventSend
      00FF5FF5H   PUBLIC    CODE     ---       CMN_SetCalibrationEnableEventSend
      00FF6616H   PUBLIC    CODE     ---       CMN_GetTemperatureRptEventSend
      00FF673DH   PUBLIC    CODE     ---       CMN_GetVoltageRptEventSend

      00FF67FFH   BLOCK     CODE     ---       LVL=0
      R13         REGSYM    ---      BYTE      cmdHeader
      R14         REGSYM    ---      BYTE      cmdSubheader
      R15         REGSYM    ---      BYTE      cmdCnfStatus
      00FF6807H   BLOCK     CODE     NEAR LAB  LVL=1
      REG=3       REGSYM    ---      ---       pEventPayload
      R12         REGSYM    ---      BYTE      qIdx
      ---         BLOCKEND  ---      ---       LVL=1
      00FF67FFH   LINE      CODE     ---       #18
      00FF6807H   LINE      CODE     ---       #23
      00FF6807H   LINE      CODE     ---       #25
      00FF680CH   LINE      CODE     ---       #26
      00FF680FH   LINE      CODE     ---       #28
      00FF6819H   LINE      CODE     ---       #29
      00FF681EH   LINE      CODE     ---       #30
      00FF6824H   LINE      CODE     ---       #31
      00FF682AH   LINE      CODE     ---       #32
      00FF682EH   LINE      CODE     ---       #33
      00FF6832H   LINE      CODE     ---       #34
      00FF6836H   LINE      CODE     ---       #36
      00FF684FH   LINE      CODE     ---       #38
      00FF685CH   LINE      CODE     ---       #39
      ---         BLOCKEND  ---      ---       LVL=0

      00FF4CCFH   BLOCK     CODE     ---       LVL=0
      00FF4CD1H   BLOCK     CODE     NEAR LAB  LVL=1
      REG=3       REGSYM    ---      ---       pEventPayload
      R15         REGSYM    ---      BYTE      qIdx
      ---         BLOCKEND  ---      ---       LVL=1
      00FF4CCFH   LINE      CODE     ---       #41
      00FF4CD1H   LINE      CODE     ---       #42
      00FF4CD1H   LINE      CODE     ---       #44
      00FF4CD6H   LINE      CODE     ---       #45
      00FF4CD9H   LINE      CODE     ---       #47
      00FF4CE3H   LINE      CODE     ---       #48
      00FF4CE8H   LINE      CODE     ---       #49
      00FF4CEEH   LINE      CODE     ---       #50
      00FF4CF4H   LINE      CODE     ---       #51
      00FF4D1EH   LINE      CODE     ---       #52
      00FF4D29H   LINE      CODE     ---       #53
      00FF4D34H   LINE      CODE     ---       #54
L251 LINKER/LOCATER V4.66.93.0                                                        01/04/2022  17:06:11  PAGE 46


      00FF4D3FH   LINE      CODE     ---       #56
      00FF4D56H   LINE      CODE     ---       #58
      00FF4D63H   LINE      CODE     ---       #59
      ---         BLOCKEND  ---      ---       LVL=0

      00FF5FF5H   BLOCK     CODE     ---       LVL=0
      00FF5FF9H   BLOCK     CODE     NEAR LAB  LVL=1
      REG=6       REGSYM    ---      ---       pEventPayload
      R15         REGSYM    ---      BYTE      qIdx
      ---         BLOCKEND  ---      ---       LVL=1
      00FF5FF5H   LINE      CODE     ---       #61
      00FF5FF9H   LINE      CODE     ---       #62
      00FF5FF9H   LINE      CODE     ---       #64
      00FF5FFEH   LINE      CODE     ---       #65
      00FF6003H   LINE      CODE     ---       #67
      00FF600DH   LINE      CODE     ---       #68
      00FF6012H   LINE      CODE     ---       #69
      00FF6018H   LINE      CODE     ---       #70
      00FF601EH   LINE      CODE     ---       #71
      00FF6035H   LINE      CODE     ---       #73
      00FF6050H   LINE      CODE     ---       #75
      00FF605DH   LINE      CODE     ---       #76
      ---         BLOCKEND  ---      ---       LVL=0

      00FF6616H   BLOCK     CODE     ---       LVL=0
      00FF661AH   BLOCK     CODE     NEAR LAB  LVL=1
      REG=6       REGSYM    ---      ---       pEventPayload
      R15         REGSYM    ---      BYTE      qIdx
      ---         BLOCKEND  ---      ---       LVL=1
      00FF6616H   LINE      CODE     ---       #78
      00FF661AH   LINE      CODE     ---       #79
      00FF661AH   LINE      CODE     ---       #81
      00FF661FH   LINE      CODE     ---       #82
      00FF6624H   LINE      CODE     ---       #84
      00FF662EH   LINE      CODE     ---       #85
      00FF6633H   LINE      CODE     ---       #86
      00FF6639H   LINE      CODE     ---       #87
      00FF663FH   LINE      CODE     ---       #88
      00FF664CH   LINE      CODE     ---       #90
      00FF6667H   LINE      CODE     ---       #92
      00FF6674H   LINE      CODE     ---       #94
      ---         BLOCKEND  ---      ---       LVL=0

      00FF673DH   BLOCK     CODE     ---       LVL=0
      00FF6741H   BLOCK     CODE     NEAR LAB  LVL=1
      REG=6       REGSYM    ---      ---       pEventPayload
      R15         REGSYM    ---      BYTE      qIdx
      ---         BLOCKEND  ---      ---       LVL=1
      00FF673DH   LINE      CODE     ---       #96
      00FF6741H   LINE      CODE     ---       #97
      00FF6741H   LINE      CODE     ---       #99
      00FF6746H   LINE      CODE     ---       #100
      00FF674BH   LINE      CODE     ---       #102
      00FF6755H   LINE      CODE     ---       #103
      00FF675AH   LINE      CODE     ---       #104
      00FF6760H   LINE      CODE     ---       #105
      00FF6764H   LINE      CODE     ---       #106
      00FF6771H   LINE      CODE     ---       #108
      00FF678CH   LINE      CODE     ---       #110
      00FF6799H   LINE      CODE     ---       #112
      ---         BLOCKEND  ---      ---       LVL=0

      ---         MODULE    ---      ---       bmu
      00FF298EH   PUBLIC    CODE     ---       BMU_MemAllocate
      00FF50CBH   PUBLIC    CODE     ---       BMU_HwReset
L251 LINKER/LOCATER V4.66.93.0                                                        01/04/2022  17:06:11  PAGE 47


      00FF3CE7H   PUBLIC    CODE     ---       BMU_HwInit
      00FF6FBCH   PUBLIC    CODE     ---       BMU_FreqFlowCtrlSet

      00FF298EH   BLOCK     CODE     ---       LVL=0
      R10         REGSYM    ---      BYTE      pageIdx
      WR6         REGSYM    ---      WORD      temp
      00FF298EH   LINE      CODE     ---       #24
      00FF298EH   LINE      CODE     ---       #25
      00FF298EH   LINE      CODE     ---       #26
      00FF298EH   LINE      CODE     ---       #40
      00FF2993H   LINE      CODE     ---       #44
      00FF29A4H   LINE      CODE     ---       #45
      00FF29B3H   LINE      CODE     ---       #46
      00FF29B9H   LINE      CODE     ---       #47
      00FF29BDH   LINE      CODE     ---       #49
      00FF29C6H   LINE      CODE     ---       #50
      00FF29DFH   LINE      CODE     ---       #51
      00FF29F7H   LINE      CODE     ---       #52
      00FF29F9H   LINE      CODE     ---       #61
      00FF2A15H   LINE      CODE     ---       #62
      00FF2A1FH   LINE      CODE     ---       #68
      00FF2A32H   LINE      CODE     ---       #69
      00FF2A3CH   LINE      CODE     ---       #72
      00FF2A4FH   LINE      CODE     ---       #73
      00FF2A59H   LINE      CODE     ---       #76
      00FF2A6CH   LINE      CODE     ---       #77
      00FF2A76H   LINE      CODE     ---       #80
      00FF2A89H   LINE      CODE     ---       #81
      00FF2A93H   LINE      CODE     ---       #84
      00FF2AA6H   LINE      CODE     ---       #85
      00FF2AB0H   LINE      CODE     ---       #88
      00FF2AB5H   LINE      CODE     ---       #89
      00FF2AB9H   LINE      CODE     ---       #94
      00FF2AB9H   LINE      CODE     ---       #95
      ---         BLOCKEND  ---      ---       LVL=0

      00FF6FBCH   BLOCK     CODE     ---       LVL=0
      00FF6FBCH   LINE      CODE     ---       #97
      00FF6FBCH   LINE      CODE     ---       #143
      00FF6FD6H   LINE      CODE     ---       #144
      00FF6FECH   LINE      CODE     ---       #145
      00FF7002H   LINE      CODE     ---       #147
      ---         BLOCKEND  ---      ---       LVL=0

      00FF50CBH   BLOCK     CODE     ---       LVL=0
      R10         REGSYM    ---      BYTE      bForcedReset
      00FF50CDH   BLOCK     CODE     NEAR LAB  LVL=1
      DR28        REGSYM    ---      DWORD     temp
      DR24        REGSYM    ---      DWORD     busyCount
      ---         BLOCKEND  ---      ---       LVL=1
      00FF50CBH   LINE      CODE     ---       #152
      00FF50CDH   LINE      CODE     ---       #155
      00FF50CDH   LINE      CODE     ---       #159
      00FF50D9H   LINE      CODE     ---       #162
      00FF50DDH   LINE      CODE     ---       #164
      00FF50DFH   LINE      CODE     ---       #165
      00FF50DFH   LINE      CODE     ---       #166
      00FF50F0H   LINE      CODE     ---       #167
      00FF50FEH   LINE      CODE     ---       #168
      00FF5108H   LINE      CODE     ---       #169
      00FF5110H   LINE      CODE     ---       #170
      00FF5112H   LINE      CODE     ---       #171
      00FF511EH   LINE      CODE     ---       #173
      00FF5124H   LINE      CODE     ---       #174
      00FF5126H   LINE      CODE     ---       #175
L251 LINKER/LOCATER V4.66.93.0                                                        01/04/2022  17:06:11  PAGE 48


      00FF5126H   LINE      CODE     ---       #178
      00FF512FH   LINE      CODE     ---       #181
      00FF5131H   LINE      CODE     ---       #182
      00FF5131H   LINE      CODE     ---       #183
      00FF513FH   LINE      CODE     ---       #184
      00FF5141H   LINE      CODE     ---       #185
      00FF514DH   LINE      CODE     ---       #187
      00FF5153H   LINE      CODE     ---       #188
      00FF5155H   LINE      CODE     ---       #190
      00FF5157H   LINE      CODE     ---       #191
      ---         BLOCKEND  ---      ---       LVL=0

      00FF3CE7H   BLOCK     CODE     ---       LVL=0
      R12         REGSYM    ---      BYTE      bTxAutoClear
      R13         REGSYM    ---      BYTE      bRxAutoCommit
      R14         REGSYM    ---      BYTE      txControlInfoSize
      R15         REGSYM    ---      BYTE      rxControlInfoSize
      00FF3CE7H   LINE      CODE     ---       #193
      00FF3CF1H   LINE      CODE     ---       #211
      00FF3CFDH   LINE      CODE     ---       #214
      00FF3D03H   LINE      CODE     ---       #217
      00FF3D0AH   LINE      CODE     ---       #218
      00FF3D0EH   LINE      CODE     ---       #221
      00FF3D11H   LINE      CODE     ---       #224
      00FF3D14H   LINE      CODE     ---       #227
      00FF3D2DH   LINE      CODE     ---       #228
      00FF3D43H   LINE      CODE     ---       #229
      00FF3D57H   LINE      CODE     ---       #230
      00FF3D6BH   LINE      CODE     ---       #234
      00FF3D85H   LINE      CODE     ---       #235
      00FF3D9BH   LINE      CODE     ---       #243
      00FF3DACH   LINE      CODE     ---       #244
      ---         BLOCKEND  ---      ---       LVL=0

      ---         MODULE    ---      ---       bmu_cmd
      00FF580EH   PUBLIC    CODE     ---       BMU_H2MCmdGet
      00FF51E3H   PUBLIC    CODE     ---       BMU_M2HCmdSet
      00FF886FH   PUBLIC    CODE     ---       BMU_M2HCmdClear

      00FF580EH   BLOCK     CODE     ---       LVL=0
      REG=4       REGSYM    ---      ---       pDataAddress
      REG=7       REGSYM    ---      ---       pDataLength
      00FF5814H   BLOCK     CODE     NEAR LAB  LVL=1
      WR12        REGSYM    ---      WORD      bufferLength
      WR10        REGSYM    ---      WORD      tempBufferLength
      WR4         REGSYM    ---      WORD      bufferAddress
      REG=2       REGSYM    ---      ---       pBufferAddress
      0000AD37H   SYMBOL    EDATA    BYTE      bRetValue
      ---         BLOCKEND  ---      ---       LVL=1
      00FF580EH   LINE      CODE     ---       #23
      00FF5814H   LINE      CODE     ---       #27
      00FF5814H   LINE      CODE     ---       #34
      00FF581AH   LINE      CODE     ---       #37
      00FF5824H   LINE      CODE     ---       #38
      00FF5827H   LINE      CODE     ---       #41
      00FF583BH   LINE      CODE     ---       #42
      00FF5848H   LINE      CODE     ---       #47
      00FF584AH   LINE      CODE     ---       #48
      00FF5851H   LINE      CODE     ---       #50
      00FF5856H   LINE      CODE     ---       #51
      00FF5858H   LINE      CODE     ---       #52
      00FF5858H   LINE      CODE     ---       #55
      00FF5872H   LINE      CODE     ---       #56
      00FF5879H   LINE      CODE     ---       #57
      00FF587CH   LINE      CODE     ---       #60
L251 LINKER/LOCATER V4.66.93.0                                                        01/04/2022  17:06:11  PAGE 49


      00FF5885H   LINE      CODE     ---       #62
      00FF5889H   LINE      CODE     ---       #63
      ---         BLOCKEND  ---      ---       LVL=0

      00FF51E3H   BLOCK     CODE     ---       LVL=0
      REG=4       REGSYM    ---      ---       pDataAddress
      WR14        REGSYM    ---      WORD      dataLength
      00FF51E9H   BLOCK     CODE     NEAR LAB  LVL=1
      WR4         REGSYM    ---      WORD      bufferAddress
      REG=3       REGSYM    ---      ---       pBufferAddress
      ---         BLOCKEND  ---      ---       LVL=1
      00FF51E3H   LINE      CODE     ---       #65
      00FF51E9H   LINE      CODE     ---       #69
      00FF51E9H   LINE      CODE     ---       #74
      00FF51F3H   LINE      CODE     ---       #75
      00FF51F6H   LINE      CODE     ---       #78
      00FF5210H   LINE      CODE     ---       #79
      00FF5213H   LINE      CODE     ---       #82
      00FF521EH   LINE      CODE     ---       #85
      00FF5236H   LINE      CODE     ---       #86
      00FF523DH   LINE      CODE     ---       #89
      00FF524BH   LINE      CODE     ---       #90
      00FF5254H   LINE      CODE     ---       #93
      00FF5260H   LINE      CODE     ---       #94
      00FF5269H   LINE      CODE     ---       #96
      00FF5269H   LINE      CODE     ---       #97
      ---         BLOCKEND  ---      ---       LVL=0

      00FF886FH   BLOCK     CODE     ---       LVL=0
      00FF886FH   LINE      CODE     ---       #99
      00FF886FH   LINE      CODE     ---       #103
      ---         BLOCKEND  ---      ---       LVL=0

      ---         MODULE    ---      ---       bmu_common
      00FF2BCEH   PUBLIC    CODE     ---       BMU_TrxQueueGet
      00FF2CDEH   PUBLIC    CODE     ---       BMU_TrxQueueSet
      00FFFF55H   PUBLIC    HCONST   ---       bmuMemSize
      0000AD2BH   PUBLIC    EDATA    ---       sBmuCtrlPara

      00FF2BCEH   BLOCK     CODE     ---       LVL=0
      WR10        REGSYM    ---      WORD      length
      WR4         REGSYM    ---      WORD      offset
      WR2         REGSYM    ---      WORD      address
      REG=4       REGSYM    ---      ---       pData
      00FF2BD4H   BLOCK     CODE     NEAR LAB  LVL=1
      0000AC70H   SYMBOL    EDATA    ---       pInput
      0000AC72H   SYMBOL    EDATA    ---       pOutput
      WR0         REGSYM    ---      WORD      startPage
      0000AC74H   SYMBOL    EDATA    WORD      startOffset
      0000AC76H   SYMBOL    EDATA    WORD      pageNum
      DR12        REGSYM    ---      DWORD     tempLength
      0000AC78H   SYMBOL    EDATA    WORD      tempAddress
      0000AC7AH   SYMBOL    EDATA    WORD      loopIdx
      ---         BLOCKEND  ---      ---       LVL=1
      00FF2BCEH   LINE      CODE     ---       #121
      00FF2BD4H   LINE      CODE     ---       #127
      00FF2BD4H   LINE      CODE     ---       #140
      00FF2BE2H   LINE      CODE     ---       #141
      00FF2BECH   LINE      CODE     ---       #142
      00FF2C02H   LINE      CODE     ---       #145
      00FF2C06H   LINE      CODE     ---       #146
      00FF2C0EH   LINE      CODE     ---       #147
      00FF2C35H   LINE      CODE     ---       #150
      00FF2C39H   LINE      CODE     ---       #151
      00FF2C3DH   LINE      CODE     ---       #152
L251 LINKER/LOCATER V4.66.93.0                                                        01/04/2022  17:06:11  PAGE 50


      00FF2C40H   LINE      CODE     ---       #155
      00FF2C64H   LINE      CODE     ---       #156
      00FF2C72H   LINE      CODE     ---       #157
      00FF2C84H   LINE      CODE     ---       #159
      00FF2C91H   LINE      CODE     ---       #162
      00FF2CA3H   LINE      CODE     ---       #163
      00FF2CA7H   LINE      CODE     ---       #166
      00FF2CBEH   LINE      CODE     ---       #169
      00FF2CC4H   LINE      CODE     ---       #170
      00FF2CDBH   LINE      CODE     ---       #171
      ---         BLOCKEND  ---      ---       LVL=0

      00FF2CDEH   BLOCK     CODE     ---       LVL=0
      WR10        REGSYM    ---      WORD      length
      WR4         REGSYM    ---      WORD      offset
      WR2         REGSYM    ---      WORD      address
      REG=4       REGSYM    ---      ---       pData
      00FF2CE4H   BLOCK     CODE     NEAR LAB  LVL=1
      0000AC7CH   SYMBOL    EDATA    ---       pInput
      0000AC7EH   SYMBOL    EDATA    ---       pOutput
      0000AC80H   SYMBOL    EDATA    WORD      tempAddress
      DR12        REGSYM    ---      DWORD     tempLength
      WR0         REGSYM    ---      WORD      startPage
      0000AC82H   SYMBOL    EDATA    WORD      startOffset
      0000AC84H   SYMBOL    EDATA    WORD      pageNum
      0000AC86H   SYMBOL    EDATA    WORD      loopIdx
      ---         BLOCKEND  ---      ---       LVL=1
      00FF2CDEH   LINE      CODE     ---       #173
      00FF2CE4H   LINE      CODE     ---       #179
      00FF2CE4H   LINE      CODE     ---       #192
      00FF2CF2H   LINE      CODE     ---       #193
      00FF2CFCH   LINE      CODE     ---       #194
      00FF2D12H   LINE      CODE     ---       #197
      00FF2D16H   LINE      CODE     ---       #198
      00FF2D1EH   LINE      CODE     ---       #199
      00FF2D45H   LINE      CODE     ---       #202
      00FF2D49H   LINE      CODE     ---       #203
      00FF2D4DH   LINE      CODE     ---       #204
      00FF2D50H   LINE      CODE     ---       #207
      00FF2D74H   LINE      CODE     ---       #208
      00FF2D82H   LINE      CODE     ---       #209
      00FF2D94H   LINE      CODE     ---       #211
      00FF2DA1H   LINE      CODE     ---       #214
      00FF2DB3H   LINE      CODE     ---       #215
      00FF2DB7H   LINE      CODE     ---       #218
      00FF2DCEH   LINE      CODE     ---       #221
      00FF2DD4H   LINE      CODE     ---       #222
      00FF2DEBH   LINE      CODE     ---       #223
      ---         BLOCKEND  ---      ---       LVL=0

      ---         MODULE    ---      ---       bmu_rx
      00FF7F29H   PUBLIC    CODE     ---       BMU_LocalRxqStartAddGet
      00FF7F4DH   PUBLIC    CODE     ---       BMU_RxqStartAddGet
      00FF4E8DH   PUBLIC    CODE     ---       BMU_RxConfig
      00FF5988H   PUBLIC    CODE     ---       BMU_LocalRxQueueGet
      00FF5F15H   PUBLIC    CODE     ---       BMU_LocalRxQueueSet
      00FF61A8H   PUBLIC    CODE     ---       BMU_RxQueueGet
      00FF6B36H   PUBLIC    CODE     ---       BMU_RxQueueSet

      00FF7F29H   BLOCK     CODE     ---       LVL=0
      00FF7F29H   LINE      CODE     ---       #23
      00FF7F29H   LINE      CODE     ---       #25
      00FF7F4CH   LINE      CODE     ---       #26
      ---         BLOCKEND  ---      ---       LVL=0

L251 LINKER/LOCATER V4.66.93.0                                                        01/04/2022  17:06:11  PAGE 51


      00FF7F4DH   BLOCK     CODE     ---       LVL=0
      00FF7F4DH   LINE      CODE     ---       #28
      00FF7F4DH   LINE      CODE     ---       #30
      00FF7F70H   LINE      CODE     ---       #31
      ---         BLOCKEND  ---      ---       LVL=0

      00FF4E8DH   BLOCK     CODE     ---       LVL=0
      WR6         REGSYM    ---      INT       queueType
      00FF4E91H   BLOCK     CODE     NEAR LAB  LVL=1
      R13         REGSYM    ---      BYTE      bRetValue
      WR14        REGSYM    ---      WORD      rxMaxLen
      ---         BLOCKEND  ---      ---       LVL=1
      00FF4E8DH   LINE      CODE     ---       #33
      00FF4E91H   LINE      CODE     ---       #36
      00FF4E91H   LINE      CODE     ---       #40
      00FF4E94H   LINE      CODE     ---       #41
      00FF4E9CH   LINE      CODE     ---       #43
      00FF4E9CH   LINE      CODE     ---       #46
      00FF4EA8H   LINE      CODE     ---       #47
      00FF4EABH   LINE      CODE     ---       #49
      00FF4EADH   LINE      CODE     ---       #50
      00FF4EADH   LINE      CODE     ---       #53
      00FF4ECCH   LINE      CODE     ---       #54
      00FF4EFCH   LINE      CODE     ---       #57
      00FF4F01H   LINE      CODE     ---       #58
      00FF4F0DH   LINE      CODE     ---       #59
      00FF4F12H   LINE      CODE     ---       #60
      00FF4F14H   LINE      CODE     ---       #61
      00FF4F14H   LINE      CODE     ---       #62
      00FF4F16H   LINE      CODE     ---       #63
      00FF4F16H   LINE      CODE     ---       #65
      00FF4F18H   LINE      CODE     ---       #66
      ---         BLOCKEND  ---      ---       LVL=0

      00FF5988H   BLOCK     CODE     ---       LVL=0
      WR30        REGSYM    ---      WORD      length
      WR8         REGSYM    ---      WORD      offset
      REG=14      REGSYM    ---      ---       pData
      00FF598EH   BLOCK     CODE     NEAR LAB  LVL=1
      WR4         REGSYM    ---      WORD      bufferLength
      WR6         REGSYM    ---      WORD      bufferAddress
      DR0         REGSYM    ---      DWORD     tempLength
      REG=2       REGSYM    ---      ---       pBufferAddress
      ---         BLOCKEND  ---      ---       LVL=1
      00FF5988H   LINE      CODE     ---       #68
      00FF598EH   LINE      CODE     ---       #73
      00FF598EH   LINE      CODE     ---       #80
      00FF5998H   LINE      CODE     ---       #81
      00FF599AH   LINE      CODE     ---       #84
      00FF59AAH   LINE      CODE     ---       #85
      00FF59B5H   LINE      CODE     ---       #88
      00FF59BFH   LINE      CODE     ---       #89
      00FF59C7H   LINE      CODE     ---       #91
      00FF59CBH   LINE      CODE     ---       #92
      00FF59CFH   LINE      CODE     ---       #94
      00FF59D5H   LINE      CODE     ---       #95
      00FF59D7H   LINE      CODE     ---       #97
      00FF59D9H   LINE      CODE     ---       #100
      00FF59DFH   LINE      CODE     ---       #101
      00FF59E2H   LINE      CODE     ---       #104
      00FF59FCH   LINE      CODE     ---       #105
      00FF5A01H   LINE      CODE     ---       #107
      00FF5A03H   LINE      CODE     ---       #108
      ---         BLOCKEND  ---      ---       LVL=0

L251 LINKER/LOCATER V4.66.93.0                                                        01/04/2022  17:06:11  PAGE 52


      00FF5F15H   BLOCK     CODE     ---       LVL=0
      WR8         REGSYM    ---      WORD      length
      WR30        REGSYM    ---      WORD      offset
      REG=14      REGSYM    ---      ---       pData
      00FF5F1BH   BLOCK     CODE     NEAR LAB  LVL=1
      WR2         REGSYM    ---      WORD      bufferLength
      WR4         REGSYM    ---      WORD      bufferAddress
      DR24        REGSYM    ---      DWORD     tempLength
      REG=3       REGSYM    ---      ---       pBufferAddress
      ---         BLOCKEND  ---      ---       LVL=1
      00FF5F15H   LINE      CODE     ---       #110
      00FF5F1BH   LINE      CODE     ---       #115
      00FF5F1BH   LINE      CODE     ---       #122
      00FF5F25H   LINE      CODE     ---       #123
      00FF5F27H   LINE      CODE     ---       #126
      00FF5F3DH   LINE      CODE     ---       #127
      00FF5F48H   LINE      CODE     ---       #130
      00FF5F52H   LINE      CODE     ---       #131
      00FF5F58H   LINE      CODE     ---       #132
      00FF5F5AH   LINE      CODE     ---       #135
      00FF5F5EH   LINE      CODE     ---       #136
      00FF5F61H   LINE      CODE     ---       #139
      00FF5F7BH   LINE      CODE     ---       #140
      00FF5F82H   LINE      CODE     ---       #142
      00FF5F84H   LINE      CODE     ---       #143
      ---         BLOCKEND  ---      ---       LVL=0

      00FF61A8H   BLOCK     CODE     ---       LVL=0
      WR30        REGSYM    ---      WORD      length
      WR8         REGSYM    ---      WORD      offset
      REG=14      REGSYM    ---      ---       pData
      00FF61AEH   BLOCK     CODE     NEAR LAB  LVL=1
      WR0         REGSYM    ---      WORD      bufferLength
      WR2         REGSYM    ---      WORD      bufferAddress
      DR4         REGSYM    ---      DWORD     tempLength
      ---         BLOCKEND  ---      ---       LVL=1
      00FF61A8H   LINE      CODE     ---       #145
      00FF61AEH   LINE      CODE     ---       #150
      00FF61AEH   LINE      CODE     ---       #156
      00FF61B8H   LINE      CODE     ---       #157
      00FF61BAH   LINE      CODE     ---       #160
      00FF61C5H   LINE      CODE     ---       #161
      00FF61DAH   LINE      CODE     ---       #164
      00FF61E4H   LINE      CODE     ---       #165
      00FF61ECH   LINE      CODE     ---       #167
      00FF61F0H   LINE      CODE     ---       #168
      00FF61F4H   LINE      CODE     ---       #170
      00FF61FAH   LINE      CODE     ---       #171
      00FF61FCH   LINE      CODE     ---       #173
      00FF61FEH   LINE      CODE     ---       #176
      00FF6204H   LINE      CODE     ---       #177
      00FF6207H   LINE      CODE     ---       #180
      00FF620EH   LINE      CODE     ---       #182
      00FF6210H   LINE      CODE     ---       #183
      ---         BLOCKEND  ---      ---       LVL=0

      00FF6B36H   BLOCK     CODE     ---       LVL=0
      WR8         REGSYM    ---      WORD      length
      WR30        REGSYM    ---      WORD      offset
      REG=14      REGSYM    ---      ---       pData
      00FF6B3CH   BLOCK     CODE     NEAR LAB  LVL=1
      WR6         REGSYM    ---      WORD      bufferLength
      WR2         REGSYM    ---      WORD      bufferAddress
      DR24        REGSYM    ---      DWORD     tempLength
      ---         BLOCKEND  ---      ---       LVL=1
L251 LINKER/LOCATER V4.66.93.0                                                        01/04/2022  17:06:11  PAGE 53


      00FF6B36H   LINE      CODE     ---       #185
      00FF6B3CH   LINE      CODE     ---       #190
      00FF6B3CH   LINE      CODE     ---       #196
      00FF6B46H   LINE      CODE     ---       #197
      00FF6B48H   LINE      CODE     ---       #200
      00FF6B53H   LINE      CODE     ---       #201
      00FF6B65H   LINE      CODE     ---       #204
      00FF6B6FH   LINE      CODE     ---       #205
      00FF6B75H   LINE      CODE     ---       #206
      00FF6B77H   LINE      CODE     ---       #209
      00FF6B7BH   LINE      CODE     ---       #210
      00FF6B7EH   LINE      CODE     ---       #213
      00FF6B87H   LINE      CODE     ---       #215
      00FF6B89H   LINE      CODE     ---       #216
      ---         BLOCKEND  ---      ---       LVL=0

      ---         MODULE    ---      ---       bmu_tx
      00FF7F71H   PUBLIC    CODE     ---       BMU_LocalTxqStartAddGet
      00FF7F95H   PUBLIC    CODE     ---       BMU_TxqStartAddGet
      00FF836CH   PUBLIC    CODE     ---       BMU_TxqStatusUpd
      00FF7DA3H   PUBLIC    CODE     ---       BMU_TxqStatusRecovery
      00FF77BAH   PUBLIC    CODE     ---       BMU_TxqPktSearch
      00FF4922H   PUBLIC    CODE     ---       BMU_TxPktLengthGet
      00FF473DH   PUBLIC    CODE     ---       BMU_TxConfig
      00FF75EAH   PUBLIC    CODE     ---       BMU_LocalTxQueueGet
      00FF4F1DH   PUBLIC    CODE     ---       BMU_LocalTxQueueSet
      00FF6211H   PUBLIC    CODE     ---       BMU_TxQueueGet
      00FF627AH   PUBLIC    CODE     ---       BMU_TxQueueSet
      00FF4D66H   PUBLIC    CODE     ---       BMU_TxQueueClear

      00FF7F71H   BLOCK     CODE     ---       LVL=0
      00FF7F71H   LINE      CODE     ---       #26
      00FF7F71H   LINE      CODE     ---       #28
      00FF7F94H   LINE      CODE     ---       #29
      ---         BLOCKEND  ---      ---       LVL=0

      00FF7F95H   BLOCK     CODE     ---       LVL=0
      R7          REGSYM    ---      BYTE      dataQueueId
      00FF7F95H   LINE      CODE     ---       #31
      00FF7F95H   LINE      CODE     ---       #35
      00FF7FB7H   LINE      CODE     ---       #36
      ---         BLOCKEND  ---      ---       LVL=0

      00FF836CH   BLOCK     CODE     ---       LVL=0
      00FF836CH   LINE      CODE     ---       #38
      00FF836CH   LINE      CODE     ---       #40
      00FF8377H   LINE      CODE     ---       #41
      00FF8382H   LINE      CODE     ---       #42
      ---         BLOCKEND  ---      ---       LVL=0

      00FF7DA3H   BLOCK     CODE     ---       LVL=0
      R15         REGSYM    ---      BYTE      txQueueId
      00FF7DA3H   LINE      CODE     ---       #44
      00FF7DA7H   LINE      CODE     ---       #48
      00FF7DB4H   LINE      CODE     ---       #49
      00FF7DC9H   LINE      CODE     ---       #50
      ---         BLOCKEND  ---      ---       LVL=0

      00FF77BAH   BLOCK     CODE     ---       LVL=0
      REG=0       REGSYM    ---      ---       pPktNum
      REG=1       REGSYM    ---      ---       pQList
      00FF77BEH   BLOCK     CODE     NEAR LAB  LVL=1
      R10         REGSYM    ---      BYTE      rTxqEmpty
      R7          REGSYM    ---      BYTE      rTxqDiff
      R6          REGSYM    ---      BYTE      idx
L251 LINKER/LOCATER V4.66.93.0                                                        01/04/2022  17:06:11  PAGE 54


      ---         BLOCKEND  ---      ---       LVL=1
      00FF77BAH   LINE      CODE     ---       #52
      00FF77BEH   LINE      CODE     ---       #56
      00FF77BEH   LINE      CODE     ---       #61
      00FF77C5H   LINE      CODE     ---       #62
      00FF77CBH   LINE      CODE     ---       #63
      00FF77CFH   LINE      CODE     ---       #64
      00FF77D1H   LINE      CODE     ---       #66
      00FF77D6H   LINE      CODE     ---       #68
      00FF77DDH   LINE      CODE     ---       #69
      00FF77E0H   LINE      CODE     ---       #70
      00FF77E2H   LINE      CODE     ---       #71
      00FF77E2H   LINE      CODE     ---       #72
      00FF77E4H   LINE      CODE     ---       #74
      00FF77E6H   LINE      CODE     ---       #75
      00FF77E6H   LINE      CODE     ---       #76
      00FF77EDH   LINE      CODE     ---       #79
      00FF77F1H   LINE      CODE     ---       #80
      ---         BLOCKEND  ---      ---       LVL=0

      00FF4922H   BLOCK     CODE     ---       LVL=0
      R10         REGSYM    ---      BYTE      queueId
      R15         REGSYM    ---      BYTE      pktId
      REG=4       REGSYM    ---      ---       pPktLength
      00FF4922H   LINE      CODE     ---       #82
      00FF492AH   LINE      CODE     ---       #125
      00FF493DH   LINE      CODE     ---       #126
      00FF4940H   LINE      CODE     ---       #129
      00FF4953H   LINE      CODE     ---       #130
      00FF4969H   LINE      CODE     ---       #133
      00FF4987H   LINE      CODE     ---       #134
      00FF4989H   LINE      CODE     ---       #135
      00FF499EH   LINE      CODE     ---       #136
      00FF49A5H   LINE      CODE     ---       #138
      00FF49BCH   LINE      CODE     ---       #142
      00FF49BEH   LINE      CODE     ---       #143
      ---         BLOCKEND  ---      ---       LVL=0

      00FF473DH   BLOCK     CODE     ---       LVL=0
      WR6         REGSYM    ---      INT       queueType
      R10         REGSYM    ---      BYTE      queueId
      R9          REGSYM    ---      BYTE      pktId
      00FF473DH   LINE      CODE     ---       #145
      00FF4741H   LINE      CODE     ---       #151
      00FF474FH   LINE      CODE     ---       #154
      00FF474FH   LINE      CODE     ---       #156
      00FF4754H   LINE      CODE     ---       #157
      00FF4756H   LINE      CODE     ---       #160
      00FF4774H   LINE      CODE     ---       #161
      00FF4776H   LINE      CODE     ---       #164
      00FF478AH   LINE      CODE     ---       #166
      00FF47A1H   LINE      CODE     ---       #172
      00FF47ADH   LINE      CODE     ---       #174
      00FF47BCH   LINE      CODE     ---       #176
      00FF47C6H   LINE      CODE     ---       #180
      00FF47C6H   LINE      CODE     ---       #184
      00FF47CAH   LINE      CODE     ---       #186
      00FF47CCH   LINE      CODE     ---       #189
      00FF47CCH   LINE      CODE     ---       #192
      00FF47D8H   LINE      CODE     ---       #194
      00FF47DAH   LINE      CODE     ---       #196
      00FF47DAH   LINE      CODE     ---       #197
      00FF47DCH   LINE      CODE     ---       #198
      00FF47DCH   LINE      CODE     ---       #200
      00FF47DEH   LINE      CODE     ---       #201
L251 LINKER/LOCATER V4.66.93.0                                                        01/04/2022  17:06:11  PAGE 55


      ---         BLOCKEND  ---      ---       LVL=0

      00FF75EAH   BLOCK     CODE     ---       LVL=0
      WR8         REGSYM    ---      WORD      length
      WR28        REGSYM    ---      WORD      offset
      REG=15      REGSYM    ---      ---       pData
      00FF75F0H   BLOCK     CODE     NEAR LAB  LVL=1
      WR6         REGSYM    ---      WORD      bufferAddress
      REG=2       REGSYM    ---      ---       pBufferAddress
      ---         BLOCKEND  ---      ---       LVL=1
      00FF75EAH   LINE      CODE     ---       #203
      00FF75F0H   LINE      CODE     ---       #208
      00FF75F0H   LINE      CODE     ---       #213
      00FF75F4H   LINE      CODE     ---       #214
      00FF75F7H   LINE      CODE     ---       #217
      00FF7602H   LINE      CODE     ---       #220
      00FF761CH   LINE      CODE     ---       #221
      00FF7623H   LINE      CODE     ---       #223
      00FF7625H   LINE      CODE     ---       #224
      ---         BLOCKEND  ---      ---       LVL=0

      00FF4F1DH   BLOCK     CODE     ---       LVL=0
      WR8         REGSYM    ---      WORD      length
      WR30        REGSYM    ---      WORD      offset
      REG=14      REGSYM    ---      ---       pData
      R11         REGSYM    ---      BYTE      bTxqInit
      00FF4F23H   BLOCK     CODE     NEAR LAB  LVL=1
      WR4         REGSYM    ---      WORD      bufferAddress
      DR0         REGSYM    ---      DWORD     tempLength
      REG=3       REGSYM    ---      ---       pBufferAddress
      ---         BLOCKEND  ---      ---       LVL=1
      00FF4F1DH   LINE      CODE     ---       #226
      00FF4F23H   LINE      CODE     ---       #232
      00FF4F23H   LINE      CODE     ---       #238
      00FF4F27H   LINE      CODE     ---       #239
      00FF4F2AH   LINE      CODE     ---       #242
      00FF4F34H   LINE      CODE     ---       #243
      00FF4F36H   LINE      CODE     ---       #245
      00FF4F52H   LINE      CODE     ---       #246
      00FF4F54H   LINE      CODE     ---       #249
      00FF4F62H   LINE      CODE     ---       #250
      00FF4F64H   LINE      CODE     ---       #251
      00FF4F7CH   LINE      CODE     ---       #252
      00FF4F7EH   LINE      CODE     ---       #255
      00FF4F89H   LINE      CODE     ---       #258
      00FF4FA3H   LINE      CODE     ---       #259
      00FF4FAAH   LINE      CODE     ---       #261
      00FF4FACH   LINE      CODE     ---       #262
      ---         BLOCKEND  ---      ---       LVL=0

      00FF6211H   BLOCK     CODE     ---       LVL=0
      R10         REGSYM    ---      BYTE      queueId
      WR8         REGSYM    ---      WORD      length
      WR28        REGSYM    ---      WORD      offset
      REG=15      REGSYM    ---      ---       pData
      00FF6219H   BLOCK     CODE     NEAR LAB  LVL=1
      WR2         REGSYM    ---      WORD      bufferAddress
      ---         BLOCKEND  ---      ---       LVL=1
      00FF6211H   LINE      CODE     ---       #264
      00FF6219H   LINE      CODE     ---       #270
      00FF6219H   LINE      CODE     ---       #274
      00FF621EH   LINE      CODE     ---       #275
      00FF6220H   LINE      CODE     ---       #278
      00FF623EH   LINE      CODE     ---       #279
      00FF6240H   LINE      CODE     ---       #282
L251 LINKER/LOCATER V4.66.93.0                                                        01/04/2022  17:06:11  PAGE 56


      00FF6244H   LINE      CODE     ---       #283
      00FF6247H   LINE      CODE     ---       #287
      00FF625BH   LINE      CODE     ---       #288
      00FF6263H   LINE      CODE     ---       #289
      00FF626EH   LINE      CODE     ---       #295
      00FF6277H   LINE      CODE     ---       #297
      00FF6279H   LINE      CODE     ---       #298
      ---         BLOCKEND  ---      ---       LVL=0

      00FF627AH   BLOCK     CODE     ---       LVL=0
      R10         REGSYM    ---      BYTE      queueId
      WR8         REGSYM    ---      WORD      length
      WR28        REGSYM    ---      WORD      offset
      REG=15      REGSYM    ---      ---       pData
      00FF6282H   BLOCK     CODE     NEAR LAB  LVL=1
      WR2         REGSYM    ---      WORD      bufferAddress
      ---         BLOCKEND  ---      ---       LVL=1
      00FF627AH   LINE      CODE     ---       #300
      00FF6282H   LINE      CODE     ---       #306
      00FF6282H   LINE      CODE     ---       #310
      00FF6287H   LINE      CODE     ---       #311
      00FF6289H   LINE      CODE     ---       #314
      00FF62A7H   LINE      CODE     ---       #315
      00FF62A9H   LINE      CODE     ---       #318
      00FF62ADH   LINE      CODE     ---       #319
      00FF62B0H   LINE      CODE     ---       #323
      00FF62C4H   LINE      CODE     ---       #324
      00FF62CCH   LINE      CODE     ---       #325
      00FF62D7H   LINE      CODE     ---       #331
      00FF62E0H   LINE      CODE     ---       #333
      00FF62E2H   LINE      CODE     ---       #334
      ---         BLOCKEND  ---      ---       LVL=0

      00FF4D66H   BLOCK     CODE     ---       LVL=0
      R9          REGSYM    ---      BYTE      queueId
      R10         REGSYM    ---      BYTE      pktId
      00FF4D66H   LINE      CODE     ---       #336
      00FF4D6AH   LINE      CODE     ---       #342
      00FF4D7DH   LINE      CODE     ---       #343
      00FF4D7FH   LINE      CODE     ---       #345
      00FF4DC4H   LINE      CODE     ---       #347
      00FF4DC7H   LINE      CODE     ---       #350
      00FF4DDAH   LINE      CODE     ---       #352
      00FF4DEFH   LINE      CODE     ---       #356
      00FF4DF8H   LINE      CODE     ---       #358
      00FF4DFAH   LINE      CODE     ---       #359
      ---         BLOCKEND  ---      ---       LVL=0

      ---         MODULE    ---      ---       bmu_ble
      00FF5BF0H   PUBLIC    CODE     ---       BMU_PrivacyIrkClr
      00FF7478H   PUBLIC    CODE     ---       BMU_PrivacyIrkSet
      00FF76D6H   PUBLIC    CODE     ---       BMU_PrivacyIrkGet
      00FF47DFH   PUBLIC    CODE     ---       BMU_PrivacyLocalRpaGen
      00FF550DH   PUBLIC    CODE     ---       BMU_PrivacyIrkFullSearch
      00FF769CH   PUBLIC    CODE     ---       BMU_PrivacyIrkSingleSearch

      00FF7478H   BLOCK     CODE     ---       LVL=0
      R3          REGSYM    ---      BYTE      idx
      REG=4       REGSYM    ---      ---       pIrk
      00FF7478H   LINE      CODE     ---       #25
      00FF747CH   LINE      CODE     ---       #31
      ---         BLOCKEND  ---      ---       LVL=0

      00FF76D6H   BLOCK     CODE     ---       LVL=0
      R1          REGSYM    ---      BYTE      idx
L251 LINKER/LOCATER V4.66.93.0                                                        01/04/2022  17:06:11  PAGE 57


      REG=3       REGSYM    ---      ---       pIrk
      00FF76D6H   LINE      CODE     ---       #34
      00FF76D6H   LINE      CODE     ---       #40
      ---         BLOCKEND  ---      ---       LVL=0

      00FF5BF0H   BLOCK     CODE     ---       LVL=0
      R11         REGSYM    ---      BYTE      bClrAll
      R10         REGSYM    ---      BYTE      idx
      00FF5BF0H   LINE      CODE     ---       #44
      00FF5BF2H   LINE      CODE     ---       #49
      00FF5BF4H   LINE      CODE     ---       #52
      00FF5C2BH   LINE      CODE     ---       #53
      00FF5C2DH   LINE      CODE     ---       #57
      00FF5C67H   LINE      CODE     ---       #58
      00FF5C67H   LINE      CODE     ---       #59
      ---         BLOCKEND  ---      ---       LVL=0

      00FF47DFH   BLOCK     CODE     ---       LVL=0
      0000AD38H   SYMBOL    EDATA    BYTE      idx
      REG=3       REGSYM    ---      ---       pIrk
      REG=6       REGSYM    ---      ---       pPrand
      REG=7       REGSYM    ---      ---       pHash
      00FF47E9H   BLOCK     CODE     NEAR LAB  LVL=1
      DR4         REGSYM    ---      DWORD     regTemp
      ---         BLOCKEND  ---      ---       LVL=1
      00FF47DFH   LINE      CODE     ---       #61
      00FF47E9H   LINE      CODE     ---       #67
      00FF47E9H   LINE      CODE     ---       #71
      00FF47ECH   LINE      CODE     ---       #74
      00FF4807H   LINE      CODE     ---       #75
      00FF481CH   LINE      CODE     ---       #78
      00FF4825H   LINE      CODE     ---       #81
      00FF4840H   LINE      CODE     ---       #84
      00FF4848H   LINE      CODE     ---       #87
      00FF4852H   LINE      CODE     ---       #90
      00FF4873H   LINE      CODE     ---       #91
      00FF4876H   LINE      CODE     ---       #92
      00FF487AH   LINE      CODE     ---       #93
      00FF487EH   LINE      CODE     ---       #94
      ---         BLOCKEND  ---      ---       LVL=0

      00FF550DH   BLOCK     CODE     ---       LVL=0
      REG=2       REGSYM    ---      ---       pHash
      REG=7       REGSYM    ---      ---       pPrand
      REG=6       REGSYM    ---      ---       pResult
      00FF5515H   BLOCK     CODE     NEAR LAB  LVL=1
      DR4         REGSYM    ---      DWORD     regTemp
      ---         BLOCKEND  ---      ---       LVL=1
      00FF550DH   LINE      CODE     ---       #96
      00FF5515H   LINE      CODE     ---       #101
      00FF5515H   LINE      CODE     ---       #105
      00FF5520H   LINE      CODE     ---       #108
      00FF553BH   LINE      CODE     ---       #109
      00FF5550H   LINE      CODE     ---       #112
      00FF555CH   LINE      CODE     ---       #115
      00FF5564H   LINE      CODE     ---       #118
      00FF556CH   LINE      CODE     ---       #121
      00FF5576H   LINE      CODE     ---       #124
      00FF5580H   LINE      CODE     ---       #126
      00FF5586H   LINE      CODE     ---       #127
      00FF558AH   LINE      CODE     ---       #128
      00FF558AH   LINE      CODE     ---       #129
      00FF558BH   LINE      CODE     ---       #130
      ---         BLOCKEND  ---      ---       LVL=0

L251 LINKER/LOCATER V4.66.93.0                                                        01/04/2022  17:06:11  PAGE 58


      00FF769CH   BLOCK     CODE     ---       LVL=0
      R11         REGSYM    ---      BYTE      idx
      REG=0       REGSYM    ---      ---       pIrk
      REG=1       REGSYM    ---      ---       pPrand
      REG=7       REGSYM    ---      ---       pHash
      00FF76A4H   BLOCK     CODE     NEAR LAB  LVL=1
      0000ACEFH   SYMBOL    EDATA    DWORD     regTemp
      ---         BLOCKEND  ---      ---       LVL=1
      00FF769CH   LINE      CODE     ---       #132
      00FF76A4H   LINE      CODE     ---       #138
      00FF76A4H   LINE      CODE     ---       #139
      00FF76AAH   LINE      CODE     ---       #142
      00FF76B5H   LINE      CODE     ---       #145
      00FF76CAH   LINE      CODE     ---       #146
      00FF76CEH   LINE      CODE     ---       #147
      00FF76D1H   LINE      CODE     ---       #148
      00FF76D3H   LINE      CODE     ---       #149
      ---         BLOCKEND  ---      ---       LVL=0

      ---         MODULE    ---      ---       mac
      00FF77F2H   PUBLIC    CODE     ---       mac_FunEventQAdd?_
      00FF782AH   PUBLIC    CODE     ---       mac_IntEventQAdd?_
      00FF74F5H   PUBLIC    CODE     ---       mac_FunEventQGet?_
      00FF7ACFH   PUBLIC    CODE     ---       MAC_SleepCheck
      00FF87F7H   PUBLIC    CODE     ---       Mac_TimeoutHdlr
      00FF8065H   PUBLIC    CODE     ---       mac_Init
      00FF7EDFH   PUBLIC    CODE     ---       mac_CheckRxBusy
      00FF85C0H   PUBLIC    CODE     ---       mac_CheckIsrRxReceived
      00FF8802H   PUBLIC    CODE     ---       mac_FatalClear
      00FF7E1DH   PUBLIC    CODE     ---       mac
      00FF84BDH   PUBLIC    CODE     ---       mac_IntEventQueueHandler
      00FF6AE1H   PUBLIC    CODE     ---       mac_CheckBmuErr
      00FF81F7H   PUBLIC    CODE     ---       mac_FunEventQInit
      00FF7533H   PUBLIC    CODE     ---       mac_IntEventQGet?_
      00FF8214H   PUBLIC    CODE     ---       mac_IntEventQInit
      00FF844FH   PUBLIC    CODE     ---       pciQueueGetandMacIntQueueAdd
      00FF86DDH   PUBLIC    CODE     ---       mac_FunEventQueueExist
      00FF243EH   PUBLIC    CODE     ---       mac_TrxPar_Init
      00FF86ECH   PUBLIC    CODE     ---       mac_IntEventQueueExist
      0000ABC8H   PUBLIC    EDATA    ---       gMacFunCtrl
      0000ABC9H   PUBLIC    EDATA    ---       gMacFunEventQ
      0000ABD3H   PUBLIC    EDATA    ---       gMacIntEventQ
      000000A8H.7 SFRSYM    DATA     BIT       EA
      00000080H   SFRSYM    DATA     BYTE      P0

      00FF77F2H   BLOCK     CODE     ---       LVL=0
      WR4         REGSYM    ---      WORD      state
      00FF77F2H   LINE      CODE     ---       #82
      00FF77F4H   LINE      CODE     ---       #85
      00FF77F8H   LINE      CODE     ---       #86
      00FF77F8H   LINE      CODE     ---       #87
      00FF77FAH   LINE      CODE     ---       #90
      00FF780BH   LINE      CODE     ---       #92
      00FF780FH   LINE      CODE     ---       #95
      00FF781BH   LINE      CODE     ---       #97
      00FF7820H   LINE      CODE     ---       #98
      00FF7822H   LINE      CODE     ---       #104
      00FF7825H   LINE      CODE     ---       #106
      00FF7827H   LINE      CODE     ---       #107
      00FF7827H   LINE      CODE     ---       #108
      00FF7829H   LINE      CODE     ---       #110
      ---         BLOCKEND  ---      ---       LVL=0

      00FF74F5H   BLOCK     CODE     ---       LVL=0
      WR6         REGSYM    ---      WORD      ret
L251 LINKER/LOCATER V4.66.93.0                                                        01/04/2022  17:06:11  PAGE 59


      00FF74F5H   LINE      CODE     ---       #119
      00FF74F5H   LINE      CODE     ---       #120
      00FF74F5H   LINE      CODE     ---       #125
      00FF74F7H   LINE      CODE     ---       #127
      00FF7504H   LINE      CODE     ---       #129
      00FF7508H   LINE      CODE     ---       #134
      00FF750EH   LINE      CODE     ---       #137
      00FF7518H   LINE      CODE     ---       #139
      00FF751DH   LINE      CODE     ---       #140
      00FF751FH   LINE      CODE     ---       #144
      00FF752BH   LINE      CODE     ---       #146
      00FF7530H   LINE      CODE     ---       #147
      00FF7530H   LINE      CODE     ---       #150
      00FF7530H   LINE      CODE     ---       #151
      00FF7532H   LINE      CODE     ---       #153
      00FF7532H   LINE      CODE     ---       #154
      ---         BLOCKEND  ---      ---       LVL=0

      00FF81F7H   BLOCK     CODE     ---       LVL=0
      R7          REGSYM    ---      BYTE      i
      00FF81F7H   LINE      CODE     ---       #163
      00FF81F7H   LINE      CODE     ---       #164
      00FF81F7H   LINE      CODE     ---       #168
      00FF81FCH   LINE      CODE     ---       #169
      00FF8200H   LINE      CODE     ---       #171
      00FF8202H   LINE      CODE     ---       #173
      00FF820CH   LINE      CODE     ---       #174
      00FF8213H   LINE      CODE     ---       #175
      ---         BLOCKEND  ---      ---       LVL=0

      00FF782AH   BLOCK     CODE     ---       LVL=0
      WR4         REGSYM    ---      WORD      state
      00FF782AH   LINE      CODE     ---       #184
      00FF782CH   LINE      CODE     ---       #187
      00FF7830H   LINE      CODE     ---       #188
      00FF7830H   LINE      CODE     ---       #191
      00FF7832H   LINE      CODE     ---       #195
      00FF7843H   LINE      CODE     ---       #197
      00FF7847H   LINE      CODE     ---       #200
      00FF7853H   LINE      CODE     ---       #202
      00FF7858H   LINE      CODE     ---       #203
      00FF785AH   LINE      CODE     ---       #209
      00FF785DH   LINE      CODE     ---       #210
      00FF785FH   LINE      CODE     ---       #211
      00FF785FH   LINE      CODE     ---       #213
      00FF7861H   LINE      CODE     ---       #216
      ---         BLOCKEND  ---      ---       LVL=0

      00FF7533H   BLOCK     CODE     ---       LVL=0
      WR6         REGSYM    ---      WORD      ret
      00FF7533H   LINE      CODE     ---       #227
      00FF7533H   LINE      CODE     ---       #228
      00FF7533H   LINE      CODE     ---       #234
      00FF7535H   LINE      CODE     ---       #235
      00FF7542H   LINE      CODE     ---       #237
      00FF7546H   LINE      CODE     ---       #240
      00FF754CH   LINE      CODE     ---       #243
      00FF7556H   LINE      CODE     ---       #245
      00FF755BH   LINE      CODE     ---       #246
      00FF755DH   LINE      CODE     ---       #250
      00FF7569H   LINE      CODE     ---       #252
      00FF756EH   LINE      CODE     ---       #253
      00FF756EH   LINE      CODE     ---       #255
      00FF756EH   LINE      CODE     ---       #256
      00FF7570H   LINE      CODE     ---       #257
L251 LINKER/LOCATER V4.66.93.0                                                        01/04/2022  17:06:11  PAGE 60


      00FF7570H   LINE      CODE     ---       #258
      ---         BLOCKEND  ---      ---       LVL=0

      00FF8214H   BLOCK     CODE     ---       LVL=0
      R7          REGSYM    ---      BYTE      i
      00FF8214H   LINE      CODE     ---       #267
      00FF8214H   LINE      CODE     ---       #268
      00FF8214H   LINE      CODE     ---       #272
      00FF8219H   LINE      CODE     ---       #273
      00FF821DH   LINE      CODE     ---       #275
      00FF821FH   LINE      CODE     ---       #277
      00FF8229H   LINE      CODE     ---       #278
      00FF8230H   LINE      CODE     ---       #279
      ---         BLOCKEND  ---      ---       LVL=0

      00FF844FH   BLOCK     CODE     ---       LVL=0
      R7          REGSYM    ---      BYTE      pciQueueNum
      00FF844FH   LINE      CODE     ---       #282
      00FF844FH   LINE      CODE     ---       #283
      00FF844FH   LINE      CODE     ---       #284
      00FF8458H   LINE      CODE     ---       #285
      00FF845DH   LINE      CODE     ---       #287
      00FF8464H   LINE      CODE     ---       #288
      ---         BLOCKEND  ---      ---       LVL=0

      00FF86DDH   BLOCK     CODE     ---       LVL=0
      00FF86DDH   LINE      CODE     ---       #293
      00FF86DDH   LINE      CODE     ---       #295
      00FF86EBH   LINE      CODE     ---       #296
      ---         BLOCKEND  ---      ---       LVL=0

      00FF84BDH   BLOCK     CODE     ---       LVL=0
      WR6         REGSYM    ---      WORD      macIntEventQueue
      00FF84BDH   LINE      CODE     ---       #298
      00FF84BDH   LINE      CODE     ---       #299
      00FF84BDH   LINE      CODE     ---       #303
      00FF84C0H   LINE      CODE     ---       #313
      00FF84C3H   LINE      CODE     ---       #314
      00FF84CBH   LINE      CODE     ---       #317
      00FF84CBH   LINE      CODE     ---       #318
      00FF84CEH   LINE      CODE     ---       #319
      00FF84CEH   LINE      CODE     ---       #321
      00FF84CEH   LINE      CODE     ---       #329
      00FF84D1H   LINE      CODE     ---       #331
      00FF84D1H   LINE      CODE     ---       #333
      00FF84D1H   LINE      CODE     ---       #335
      ---         BLOCKEND  ---      ---       LVL=0

      00FF243EH   BLOCK     CODE     ---       LVL=0
      00FF243EH   LINE      CODE     ---       #337
      00FF2440H   LINE      CODE     ---       #340
      00FF2448H   LINE      CODE     ---       #341
      00FF244EH   LINE      CODE     ---       #342
      00FF2454H   LINE      CODE     ---       #343
      00FF245AH   LINE      CODE     ---       #344
      00FF2460H   LINE      CODE     ---       #345
      00FF2468H   LINE      CODE     ---       #346
      00FF2470H   LINE      CODE     ---       #347
      00FF2474H   LINE      CODE     ---       #349
      00FF2479H   LINE      CODE     ---       #350
      00FF247DH   LINE      CODE     ---       #351
      00FF2483H   LINE      CODE     ---       #353
      00FF248BH   LINE      CODE     ---       #354
      00FF2497H   LINE      CODE     ---       #355
      00FF24A3H   LINE      CODE     ---       #356
L251 LINKER/LOCATER V4.66.93.0                                                        01/04/2022  17:06:11  PAGE 61


      00FF24ABH   LINE      CODE     ---       #357
      00FF24B1H   LINE      CODE     ---       #359
      00FF24B9H   LINE      CODE     ---       #360
      00FF24BFH   LINE      CODE     ---       #361
      00FF24C5H   LINE      CODE     ---       #362
      00FF24C9H   LINE      CODE     ---       #364
      00FF24CEH   LINE      CODE     ---       #365
      00FF24D6H   LINE      CODE     ---       #366
      00FF24DAH   LINE      CODE     ---       #367
      00FF24E0H   LINE      CODE     ---       #369
      00FF24F4H   LINE      CODE     ---       #372
      00FF24F4H   LINE      CODE     ---       #373
      00FF24F8H   LINE      CODE     ---       #374
      00FF24FDH   LINE      CODE     ---       #375
      00FF2505H   LINE      CODE     ---       #376
      00FF2505H   LINE      CODE     ---       #377
      00FF2505H   LINE      CODE     ---       #378
      00FF2505H   LINE      CODE     ---       #379
      00FF2505H   LINE      CODE     ---       #380
      00FF2507H   LINE      CODE     ---       #384
      00FF2507H   LINE      CODE     ---       #385
      00FF250FH   LINE      CODE     ---       #386
      00FF2515H   LINE      CODE     ---       #387
      00FF251DH   LINE      CODE     ---       #388
      00FF2521H   LINE      CODE     ---       #389
      00FF2531H   LINE      CODE     ---       #390
      00FF2543H   LINE      CODE     ---       #391
      00FF254DH   LINE      CODE     ---       #392
      00FF254FH   LINE      CODE     ---       #396
      00FF254FH   LINE      CODE     ---       #397
      00FF2557H   LINE      CODE     ---       #398
      00FF255DH   LINE      CODE     ---       #399
      00FF2569H   LINE      CODE     ---       #400
      00FF256DH   LINE      CODE     ---       #401
      00FF257DH   LINE      CODE     ---       #402
      00FF258FH   LINE      CODE     ---       #403
      00FF2599H   LINE      CODE     ---       #404
      00FF2599H   LINE      CODE     ---       #419
      00FF2599H   LINE      CODE     ---       #420
      00FF259FH   LINE      CODE     ---       #426
      00FF25A4H   LINE      CODE     ---       #427
      00FF25A8H   LINE      CODE     ---       #428
      00FF25ACH   LINE      CODE     ---       #437
      ---         BLOCKEND  ---      ---       LVL=0

      00FF87F7H   BLOCK     CODE     ---       LVL=0
      00FF87F7H   LINE      CODE     ---       #439
      00FF87F7H   LINE      CODE     ---       #442
      00FF87FEH   LINE      CODE     ---       #443
      00FF8801H   LINE      CODE     ---       #444
      ---         BLOCKEND  ---      ---       LVL=0

      00FF8065H   BLOCK     CODE     ---       LVL=0
      00FF8065H   LINE      CODE     ---       #445
      00FF8065H   LINE      CODE     ---       #449
      00FF806DH   LINE      CODE     ---       #453
      00FF8070H   LINE      CODE     ---       #457
      00FF8073H   LINE      CODE     ---       #461
      00FF8076H   LINE      CODE     ---       #464
      00FF8079H   LINE      CODE     ---       #467
      00FF807CH   LINE      CODE     ---       #472
      00FF8083H   LINE      CODE     ---       #476
      ---         BLOCKEND  ---      ---       LVL=0

      00FF86ECH   BLOCK     CODE     ---       LVL=0
L251 LINKER/LOCATER V4.66.93.0                                                        01/04/2022  17:06:11  PAGE 62


      R11         REGSYM    ---      BYTE      retValue
      00FF86ECH   LINE      CODE     ---       #482
      00FF86ECH   LINE      CODE     ---       #483
      00FF86ECH   LINE      CODE     ---       #485
      00FF86FAH   LINE      CODE     ---       #486
      00FF86FAH   LINE      CODE     ---       #487
      ---         BLOCKEND  ---      ---       LVL=0

      00FF7ACFH   BLOCK     CODE     ---       LVL=0
      00FF7ACFH   LINE      CODE     ---       #489
      00FF7ACFH   LINE      CODE     ---       #495
      00FF7AD6H   LINE      CODE     ---       #498
      00FF7ADBH   LINE      CODE     ---       #499
      00FF7ADDH   LINE      CODE     ---       #502
      00FF7AE2H   LINE      CODE     ---       #503
      00FF7AE4H   LINE      CODE     ---       #528
      00FF7AEAH   LINE      CODE     ---       #530
      00FF7AECH   LINE      CODE     ---       #531
      00FF7AECH   LINE      CODE     ---       #533
      00FF7AF8H   LINE      CODE     ---       #535
      00FF7AFAH   LINE      CODE     ---       #536
      00FF7AFAH   LINE      CODE     ---       #538
      00FF7AFDH   LINE      CODE     ---       #539
      00FF7AFDH   LINE      CODE     ---       #540
      00FF7AFEH   LINE      CODE     ---       #543
      ---         BLOCKEND  ---      ---       LVL=0

      00FF6AE1H   BLOCK     CODE     ---       LVL=0
      DR4         REGSYM    ---      DWORD     tempReg
      00FF6AE1H   LINE      CODE     ---       #544
      00FF6AE1H   LINE      CODE     ---       #545
      00FF6AE1H   LINE      CODE     ---       #546
      00FF6AE1H   LINE      CODE     ---       #551
      00FF6AF0H   LINE      CODE     ---       #552
      00FF6AFCH   LINE      CODE     ---       #553
      00FF6B0AH   LINE      CODE     ---       #554
      00FF6B19H   LINE      CODE     ---       #555
      00FF6B1FH   LINE      CODE     ---       #557
      00FF6B22H   LINE      CODE     ---       #558
      00FF6B25H   LINE      CODE     ---       #559
      00FF6B29H   LINE      CODE     ---       #560
      00FF6B35H   LINE      CODE     ---       #561
      ---         BLOCKEND  ---      ---       LVL=0

      00FF7EDFH   BLOCK     CODE     ---       LVL=0
      00FF7EDFH   LINE      CODE     ---       #564
      00FF7EDFH   LINE      CODE     ---       #569
      00FF7EFFH   LINE      CODE     ---       #572
      00FF7F02H   LINE      CODE     ---       #573
      00FF7F02H   LINE      CODE     ---       #575
      00FF7F03H   LINE      CODE     ---       #576
      ---         BLOCKEND  ---      ---       LVL=0

      00FF85C0H   BLOCK     CODE     ---       LVL=0
      00FF85C0H   LINE      CODE     ---       #578
      00FF85C0H   LINE      CODE     ---       #581
      00FF85C1H   LINE      CODE     ---       #582
      00FF85C2H   LINE      CODE     ---       #583
      00FF85CDH   LINE      CODE     ---       #584
      00FF85D0H   LINE      CODE     ---       #585
      00FF85D0H   LINE      CODE     ---       #587
      00FF85D1H   LINE      CODE     ---       #588
      ---         BLOCKEND  ---      ---       LVL=0

      00FF8802H   BLOCK     CODE     ---       LVL=0
L251 LINKER/LOCATER V4.66.93.0                                                        01/04/2022  17:06:11  PAGE 63


      00FF8802H   LINE      CODE     ---       #590
      00FF8802H   LINE      CODE     ---       #592
      00FF8808H   LINE      CODE     ---       #593
      ---         BLOCKEND  ---      ---       LVL=0

      00FF7E1DH   BLOCK     CODE     ---       LVL=0
      00FF7E1DH   LINE      CODE     ---       #604
      00FF7E1DH   LINE      CODE     ---       #618
      00FF7E2FH   LINE      CODE     ---       #620
      00FF7E2FH   LINE      CODE     ---       #621
      00FF7E32H   LINE      CODE     ---       #622
      00FF7E34H   LINE      CODE     ---       #623
      00FF7E34H   LINE      CODE     ---       #624
      00FF7E37H   LINE      CODE     ---       #625
      00FF7E39H   LINE      CODE     ---       #626
      00FF7E39H   LINE      CODE     ---       #628
      00FF7E3CH   LINE      CODE     ---       #632
      00FF7E3EH   LINE      CODE     ---       #633
      00FF7E3EH   LINE      CODE     ---       #635
      00FF7E41H   LINE      CODE     ---       #639
      00FF7E41H   LINE      CODE     ---       #645
      00FF7E41H   LINE      CODE     ---       #646
      00FF7E43H   LINE      CODE     ---       #647
      ---         BLOCKEND  ---      ---       LVL=0

      ---         MODULE    ---      ---       mac_frame_parse
      00FF285BH   PUBLIC    CODE     ---       mac_parseHdr

      00FF285BH   BLOCK     CODE     ---       LVL=0
      REG=4       REGSYM    ---      ---       dptr
      REG=0       REGSYM    ---      ---       hdr
      00FF285BH   LINE      CODE     ---       #21
      00FF285FH   LINE      CODE     ---       #27
      00FF2871H   LINE      CODE     ---       #28
      00FF2873H   LINE      CODE     ---       #29
      00FF287CH   LINE      CODE     ---       #30
      00FF288CH   LINE      CODE     ---       #31
      00FF289EH   LINE      CODE     ---       #32
      00FF28B2H   LINE      CODE     ---       #33
      00FF28C8H   LINE      CODE     ---       #34
      00FF28D8H   LINE      CODE     ---       #35
      00FF28E7H   LINE      CODE     ---       #36
      00FF28F7H   LINE      CODE     ---       #38
      00FF2900H   LINE      CODE     ---       #40
      00FF2909H   LINE      CODE     ---       #42
      00FF2910H   LINE      CODE     ---       #43
      00FF2912H   LINE      CODE     ---       #44
      00FF2919H   LINE      CODE     ---       #46
      00FF2920H   LINE      CODE     ---       #47
      00FF2922H   LINE      CODE     ---       #48
      00FF2924H   LINE      CODE     ---       #51
      00FF2933H   LINE      CODE     ---       #52
      00FF2935H   LINE      CODE     ---       #53
      00FF2944H   LINE      CODE     ---       #54
      00FF2946H   LINE      CODE     ---       #55
      00FF2946H   LINE      CODE     ---       #56
      00FF2946H   LINE      CODE     ---       #58
      00FF294FH   LINE      CODE     ---       #60
      00FF2955H   LINE      CODE     ---       #62
      00FF295CH   LINE      CODE     ---       #63
      00FF295EH   LINE      CODE     ---       #64
      00FF295EH   LINE      CODE     ---       #66
      00FF2965H   LINE      CODE     ---       #68
      00FF296CH   LINE      CODE     ---       #69
      00FF296CH   LINE      CODE     ---       #70
L251 LINKER/LOCATER V4.66.93.0                                                        01/04/2022  17:06:11  PAGE 64


      00FF296DH   LINE      CODE     ---       #73
      00FF297CH   LINE      CODE     ---       #74
      00FF297EH   LINE      CODE     ---       #75
      00FF298DH   LINE      CODE     ---       #76
      00FF298DH   LINE      CODE     ---       #77
      00FF298DH   LINE      CODE     ---       #78
      ---         BLOCKEND  ---      ---       LVL=0

      ---         MODULE    ---      ---       mac_isr
      00FF2DEEH   PUBLIC    CODE     ---       mac_IsrHandler
      00FF8784H   PUBLIC    CODE     ---       mac_IsrInit
      00FF87DFH   PUBLIC    CODE     ---       mac_BmuIsrInit
      00FF880DH   PUBLIC    CODE     ---       mac_BmuIsrHandler
      00000080H   SFRSYM    DATA     BYTE      P0

      00FF2DEEH   BLOCK     CODE     ---       LVL=0
      R15         REGSYM    ---      BYTE      intSts
      00FF2DF2H   BLOCK     CODE     NEAR LAB  LVL=1
      0000ACF3H   SYMBOL    EDATA    DWORD     rtcValueforTxAck
      ---         BLOCKEND  ---      ---       LVL=1
      00FF2DEEH   LINE      CODE     ---       #45
      00FF2DF2H   LINE      CODE     ---       #46
      00FF2DF2H   LINE      CODE     ---       #49
      00FF2DF5H   LINE      CODE     ---       #51
      00FF2DFCH   LINE      CODE     ---       #52
      00FF2DFFH   LINE      CODE     ---       #53
      00FF2E02H   LINE      CODE     ---       #55
      00FF2E02H   LINE      CODE     ---       #57
      00FF2E07H   LINE      CODE     ---       #59
      00FF2E0EH   LINE      CODE     ---       #60
      00FF2E11H   LINE      CODE     ---       #61
      00FF2E14H   LINE      CODE     ---       #62
      00FF2E22H   LINE      CODE     ---       #67
      00FF2E29H   LINE      CODE     ---       #68
      00FF2E29H   LINE      CODE     ---       #71
      00FF2E31H   LINE      CODE     ---       #73
      00FF2E5DH   LINE      CODE     ---       #79
      00FF2E6DH   LINE      CODE     ---       #82
      00FF2E70H   LINE      CODE     ---       #85
      00FF2E76H   LINE      CODE     ---       #90
      00FF2E7BH   LINE      CODE     ---       #93
      00FF2E7EH   LINE      CODE     ---       #95
      00FF2E91H   LINE      CODE     ---       #96
      00FF2E94H   LINE      CODE     ---       #97
      00FF2E96H   LINE      CODE     ---       #98
      00FF2EA1H   LINE      CODE     ---       #99
      00FF2EA1H   LINE      CODE     ---       #100
      00FF2EA7H   LINE      CODE     ---       #101
      00FF2EA9H   LINE      CODE     ---       #103
      00FF2EB2H   LINE      CODE     ---       #104
      00FF2EB2H   LINE      CODE     ---       #105
      00FF2EB5H   LINE      CODE     ---       #106
      00FF2EB8H   LINE      CODE     ---       #107
      00FF2EB8H   LINE      CODE     ---       #109
      00FF2EBDH   LINE      CODE     ---       #111
      00FF2EC0H   LINE      CODE     ---       #112
      00FF2EC3H   LINE      CODE     ---       #113
      00FF2ECAH   LINE      CODE     ---       #114
      00FF2ECAH   LINE      CODE     ---       #115
      00FF2ECFH   LINE      CODE     ---       #117
      00FF2ED2H   LINE      CODE     ---       #118
      00FF2ED5H   LINE      CODE     ---       #119
      00FF2EE6H   LINE      CODE     ---       #120
      00FF2EEDH   LINE      CODE     ---       #121
      00FF2EEDH   LINE      CODE     ---       #124
L251 LINKER/LOCATER V4.66.93.0                                                        01/04/2022  17:06:11  PAGE 65


      ---         BLOCKEND  ---      ---       LVL=0

      00FF880DH   BLOCK     CODE     ---       LVL=0
      R11         REGSYM    ---      BYTE      intSts
      00FF880DH   LINE      CODE     ---       #127
      00FF880DH   LINE      CODE     ---       #136
      00FF8810H   LINE      CODE     ---       #138
      00FF8817H   LINE      CODE     ---       #139
      ---         BLOCKEND  ---      ---       LVL=0

      00FF8784H   BLOCK     CODE     ---       LVL=0
      00FF8784H   LINE      CODE     ---       #148
      00FF8784H   LINE      CODE     ---       #149
      00FF8784H   LINE      CODE     ---       #150
      00FF8784H   LINE      CODE     ---       #151
      ---         BLOCKEND  ---      ---       LVL=0

      00FF87DFH   BLOCK     CODE     ---       LVL=0
      00FF87DFH   LINE      CODE     ---       #156
      00FF87DFH   LINE      CODE     ---       #157
      00FF87DFH   LINE      CODE     ---       #160
      00FF87DFH   LINE      CODE     ---       #164
      ---         BLOCKEND  ---      ---       LVL=0

      ---         MODULE    ---      ---       mac_cmd_hdlr
      00FF4B9AH   PUBLIC    CODE     ---       Pci_SetRfFreq
      00FF6E4FH   PUBLIC    CODE     ---       Pci_SetRxTaskPara
      00FF7A6DH   PUBLIC    CODE     ---       Pci_EnableSingleTone
      00FF73F8H   PUBLIC    CODE     ---       Pci_SetRfeSecurityCmd
      00FF4881H   PUBLIC    CODE     ---       Pci_SetRfeTxEnableCmd
      00FF8465H   PUBLIC    CODE     ---       Pci_SetRfeTxDisableCmd
      00FF4309H   PUBLIC    CODE     ---       Pci_SetRfeRxEnableCmd
      00FF82A4H   PUBLIC    CODE     ---       Pci_SetRfeRxDisableCmd
      00FF8791H   PUBLIC    CODE     ---       Pci_GetCrcCount
      00FF8106H   PUBLIC    CODE     ---       Pci_SetRfSleep
      00FF85D2H   PUBLIC    CODE     ---       Pci_SetRfIdle
      00FF879EH   PUBLIC    CODE     ---       Pci_GetRssi
      00FF87ABH   PUBLIC    CODE     ---       Pci_GetPhyStatus
      00FF7376H   PUBLIC    CODE     ---       Pci_SetClockMode
      00FF697AH   PUBLIC    CODE     ---       Pci_SetRfbAutoState
      00FF7E44H   PUBLIC    CODE     ---       Pci_SetRfeMode
      00FF7C76H   PUBLIC    CODE     ---       Pci_InitFsk
      00FF7003H   PUBLIC    CODE     ---       Pci_SetFskModem
      00FF68BEH   PUBLIC    CODE     ---       Pci_SetFskMac
      00FF8163H   PUBLIC    CODE     ---       Pci_SetFskPreamble
      00FF6D1EH   PUBLIC    CODE     ---       Pci_SetFskSfd
      00FF7FB8H   PUBLIC    CODE     ---       Pci_BleCmdInitBle
      00FF3DAFH   PUBLIC    CODE     ---       Pci_BleCmdSetBleModem
      00FF526CH   PUBLIC    CODE     ---       Pci_BleCmdSetBleMac
      00FF634CH   PUBLIC    CODE     ---       Pci_InitZigbee
      00FF6D6CH   PUBLIC    CODE     ---       Pci_Parse15p4AddressFilter
      00FF73B7H   PUBLIC    CODE     ---       Pci_Parse15p4MacPib
      00FF770FH   PUBLIC    CODE     ---       Pci_Parse15p4PhyPib
      00FF85E4H   PUBLIC    CODE     ---       Pci_Parse15p4AutoAck
      00FF85F6H   PUBLIC    CODE     ---       Pci_Parse15p4PendingBit
      00FF8086H   PUBLIC    CODE     ---       Pci_OqpskCmdInitOqpsk
      00FF722AH   PUBLIC    CODE     ---       Pci_OqpskCmdSetOqpskModem
      00FF691CH   PUBLIC    CODE     ---       Pci_OqpskCmdSetOqpskMac
      00FF1482H   PUBLIC    CODE     ---       MAC_CmdQueueParse
      00FF45ECH   PUBLIC    CODE     ---       Pci_SetPhr
      00FF6DB8H   PUBLIC    CODE     ---       Pci_RfeRxParaCheck
      00FF3665H   PUBLIC    CODE     ---       SetRfIdle
      00FF7AFFH   PUBLIC    CODE     ---       Pci_ParaReset
      00FF43C7H   PUBLIC    CODE     ---       Pci_RfeTxParaCheck
      00FF833CH   PUBLIC    CODE     ---       cmdQueuePayloadPrint
L251 LINKER/LOCATER V4.66.93.0                                                        01/04/2022  17:06:11  PAGE 66


      00FF3E76H   PUBLIC    CODE     ---       Pci_ParseCommonCmd
      00FF796FH   PUBLIC    CODE     ---       Pci_Parse15p4SwMacCmd
      00FF8231H   PUBLIC    CODE     ---       Pci_ParseBleCmd
      00FF7CCFH   PUBLIC    CODE     ---       Pci_ParseFskCmd
      00FF824EH   PUBLIC    CODE     ---       Pci_ParseOqpskCmd
      00FF86FBH   PUBLIC    CODE     ---       Pci_ParseCmnSysCmd
      00FF79A2H   PUBLIC    CODE     ---       Pci_ParseCmnHalCmd
      0000AB51H   PUBLIC    EDATA    ---       g_cmdReadRegBuff
      0000AB55H   PUBLIC    EDATA    BYTE      gSleepEnable
      0000AB56H   PUBLIC    EDATA    ---       g15p4Mac
      0000AB69H   PUBLIC    EDATA    ---       g15p4Phy
      00FFFE12H   PUBLIC    HCONST   ---       gPciCommonCmdLen
      00FFFE30H   PUBLIC    HCONST   ---       gPciFskCmdLen
      00FFFE35H   PUBLIC    HCONST   ---       gPciBleCmdLen
      00FFFE38H   PUBLIC    HCONST   ---       gPci15p4MacCmdLen
      00FFFE3EH   PUBLIC    HCONST   ---       gPciOqpskCmdLen
      00FFFE42H   PUBLIC    HCONST   ---       gPciSlinkCmdLen
      00FFFE46H   PUBLIC    HCONST   ---       gCmnSysCmdLen
      00FFFE47H   PUBLIC    HCONST   ---       gCmnHalCmdLen
      000000A8H.7 SFRSYM    DATA     BIT       EA
      00000080H   SFRSYM    DATA     BYTE      P0

      00FF45ECH   BLOCK     CODE     ---       LVL=0
      WR14        REGSYM    ---      WORD      pktLen
      R13         REGSYM    ---      BYTE      dateType
      00FF45F2H   BLOCK     CODE     NEAR LAB  LVL=1
      0000AD2DH   SYMBOL    EDATA    WORD      phrContent
      R12         REGSYM    ---      BYTE      crcType
      ---         BLOCKEND  ---      ---       LVL=1
      00FF45ECH   LINE      CODE     ---       #216
      00FF45F2H   LINE      CODE     ---       #217
      00FF45F2H   LINE      CODE     ---       #218
      00FF45F8H   LINE      CODE     ---       #219
      00FF45F8H   LINE      CODE     ---       #221
      00FF4605H   LINE      CODE     ---       #227
      00FF460AH   LINE      CODE     ---       #230
      00FF4612H   LINE      CODE     ---       #231
      00FF4620H   LINE      CODE     ---       #232
      00FF462DH   LINE      CODE     ---       #233
      00FF462DH   LINE      CODE     ---       #239
      00FF4632H   LINE      CODE     ---       #242
      00FF463FH   LINE      CODE     ---       #243
      00FF4646H   LINE      CODE     ---       #244
      00FF4653H   LINE      CODE     ---       #245
      00FF4653H   LINE      CODE     ---       #251
      00FF4658H   LINE      CODE     ---       #254
      00FF4665H   LINE      CODE     ---       #255
      00FF466FH   LINE      CODE     ---       #256
      00FF467AH   LINE      CODE     ---       #257
      00FF467EH   LINE      CODE     ---       #258
      00FF4689H   LINE      CODE     ---       #259
      00FF4696H   LINE      CODE     ---       #260
      ---         BLOCKEND  ---      ---       LVL=0

      00FF7AFFH   BLOCK     CODE     ---       LVL=0
      WR6         REGSYM    ---      INT       band
      00FF7AFFH   LINE      CODE     ---       #286
      00FF7AFFH   LINE      CODE     ---       #288
      00FF7B05H   LINE      CODE     ---       #289
      00FF7B0BH   LINE      CODE     ---       #291
      00FF7B17H   LINE      CODE     ---       #292
      00FF7B1BH   LINE      CODE     ---       #293
      00FF7B21H   LINE      CODE     ---       #294
      00FF7B26H   LINE      CODE     ---       #295
      00FF7B2AH   LINE      CODE     ---       #296
L251 LINKER/LOCATER V4.66.93.0                                                        01/04/2022  17:06:11  PAGE 67


      00FF7B2EH   LINE      CODE     ---       #297
      ---         BLOCKEND  ---      ---       LVL=0

      00FF73F8H   BLOCK     CODE     ---       LVL=0
      REG=7       REGSYM    ---      ---       pCmdAddress
      00FF73FCH   BLOCK     CODE     NEAR LAB  LVL=1
      REG=1       REGSYM    ---      ---       pCmdIn
      ---         BLOCKEND  ---      ---       LVL=1
      00FF73F8H   LINE      CODE     ---       #300
      00FF73FCH   LINE      CODE     ---       #301
      00FF73FCH   LINE      CODE     ---       #315
      00FF73FFH   LINE      CODE     ---       #319
      00FF741AH   LINE      CODE     ---       #322
      00FF741CH   LINE      CODE     ---       #326
      00FF742BH   LINE      CODE     ---       #329
      00FF7435H   LINE      CODE     ---       #330
      ---         BLOCKEND  ---      ---       LVL=0

      00FF43C7H   BLOCK     CODE     ---       LVL=0
      WR12        REGSYM    ---      WORD      txCounter
      WR14        REGSYM    ---      WORD      txStepSize
      00FF43C7H   LINE      CODE     ---       #332
      00FF43CDH   LINE      CODE     ---       #335
      00FF43D7H   LINE      CODE     ---       #336
      00FF43DBH   LINE      CODE     ---       #339
      00FF43E4H   LINE      CODE     ---       #340
      00FF43E8H   LINE      CODE     ---       #343
      00FF4404H   LINE      CODE     ---       #344
      00FF4407H   LINE      CODE     ---       #347
      00FF440BH   LINE      CODE     ---       #348
      00FF440EH   LINE      CODE     ---       #351
      00FF441CH   LINE      CODE     ---       #352
      00FF441FH   LINE      CODE     ---       #355
      00FF442AH   LINE      CODE     ---       #357
      00FF443EH   LINE      CODE     ---       #358
      00FF4441H   LINE      CODE     ---       #359
      00FF4447H   LINE      CODE     ---       #361
      00FF4451H   LINE      CODE     ---       #362
      00FF4454H   LINE      CODE     ---       #363
      00FF4454H   LINE      CODE     ---       #364
      00FF445EH   LINE      CODE     ---       #366
      00FF4468H   LINE      CODE     ---       #367
      00FF446BH   LINE      CODE     ---       #368
      00FF446BH   LINE      CODE     ---       #369
      00FF446FH   LINE      CODE     ---       #370
      00FF4472H   LINE      CODE     ---       #371
      00FF447CH   LINE      CODE     ---       #372
      00FF447FH   LINE      CODE     ---       #373
      00FF447FH   LINE      CODE     ---       #375
      00FF4481H   LINE      CODE     ---       #376
      ---         BLOCKEND  ---      ---       LVL=0

      00FF6DB8H   BLOCK     CODE     ---       LVL=0
      R11         REGSYM    ---      BYTE      rxType
      R15         REGSYM    ---      BYTE      queueType
      R10         REGSYM    ---      BYTE      ackEnable
      DR0         REGSYM    ---      DWORD     ackInterval
      00FF6DB8H   LINE      CODE     ---       #378
      00FF6DBEH   LINE      CODE     ---       #381
      00FF6DC8H   LINE      CODE     ---       #382
      00FF6DCBH   LINE      CODE     ---       #385
      00FF6DD3H   LINE      CODE     ---       #386
      00FF6DD6H   LINE      CODE     ---       #389
      00FF6DE1H   LINE      CODE     ---       #392
      00FF6DE5H   LINE      CODE     ---       #393
L251 LINKER/LOCATER V4.66.93.0                                                        01/04/2022  17:06:11  PAGE 68


      00FF6DE8H   LINE      CODE     ---       #396
      00FF6DFCH   LINE      CODE     ---       #397
      00FF6DFFH   LINE      CODE     ---       #398
      00FF6DFFH   LINE      CODE     ---       #400
      00FF6E01H   LINE      CODE     ---       #401
      ---         BLOCKEND  ---      ---       LVL=0

      00FF4881H   BLOCK     CODE     ---       LVL=0
      REG=7       REGSYM    ---      ---       pCmdAddress
      00FF4885H   BLOCK     CODE     NEAR LAB  LVL=1
      REG=7       REGSYM    ---      ---       pCmdIn
      ---         BLOCKEND  ---      ---       LVL=1
      00FF4881H   LINE      CODE     ---       #404
      00FF4885H   LINE      CODE     ---       #405
      00FF4885H   LINE      CODE     ---       #419
      00FF4888H   LINE      CODE     ---       #423
      00FF48A3H   LINE      CODE     ---       #426
      00FF48A3H   LINE      CODE     ---       #430
      00FF48ABH   LINE      CODE     ---       #431
      00FF48B3H   LINE      CODE     ---       #432
      00FF48BBH   LINE      CODE     ---       #433
      00FF48C7H   LINE      CODE     ---       #434
      00FF48CFH   LINE      CODE     ---       #435
      00FF48D7H   LINE      CODE     ---       #436
      00FF48DFH   LINE      CODE     ---       #439
      00FF48ECH   LINE      CODE     ---       #441
      00FF48F4H   LINE      CODE     ---       #442
      00FF48F6H   LINE      CODE     ---       #443
      00FF48F6H   LINE      CODE     ---       #446
      00FF4909H   LINE      CODE     ---       #449
      00FF490FH   LINE      CODE     ---       #450
      00FF4917H   LINE      CODE     ---       #473
      00FF491FH   LINE      CODE     ---       #474
      ---         BLOCKEND  ---      ---       LVL=0

      00FF8465H   BLOCK     CODE     ---       LVL=0
      00FF8465H   LINE      CODE     ---       #476
      00FF8465H   LINE      CODE     ---       #478
      00FF8465H   LINE      CODE     ---       #490
      00FF8468H   LINE      CODE     ---       #495
      00FF846EH   LINE      CODE     ---       #501
      00FF8473H   LINE      CODE     ---       #504
      ---         BLOCKEND  ---      ---       LVL=0

      00FF4309H   BLOCK     CODE     ---       LVL=0
      REG=7       REGSYM    ---      ---       pCmdAddress
      00FF430DH   BLOCK     CODE     NEAR LAB  LVL=1
      REG=7       REGSYM    ---      ---       pCmdIn
      DR12        REGSYM    ---      DWORD     periodicReportCycle
      ---         BLOCKEND  ---      ---       LVL=1
      00FF4309H   LINE      CODE     ---       #507
      00FF430DH   LINE      CODE     ---       #508
      00FF430DH   LINE      CODE     ---       #523
      00FF4310H   LINE      CODE     ---       #527
      00FF432BH   LINE      CODE     ---       #530
      00FF432BH   LINE      CODE     ---       #534
      00FF4337H   LINE      CODE     ---       #535
      00FF433FH   LINE      CODE     ---       #536
      00FF4347H   LINE      CODE     ---       #537
      00FF434FH   LINE      CODE     ---       #540
      00FF4366H   LINE      CODE     ---       #542
      00FF436EH   LINE      CODE     ---       #543
      00FF4370H   LINE      CODE     ---       #544
      00FF4370H   LINE      CODE     ---       #547
      00FF4387H   LINE      CODE     ---       #550
L251 LINKER/LOCATER V4.66.93.0                                                        01/04/2022  17:06:11  PAGE 69


      00FF438DH   LINE      CODE     ---       #551
      00FF4395H   LINE      CODE     ---       #563
      00FF439DH   LINE      CODE     ---       #565
      00FF43AEH   LINE      CODE     ---       #569
      00FF43BAH   LINE      CODE     ---       #571
      00FF43BAH   LINE      CODE     ---       #574
      00FF43C4H   LINE      CODE     ---       #575
      ---         BLOCKEND  ---      ---       LVL=0

      00FF82A4H   BLOCK     CODE     ---       LVL=0
      00FF82A4H   LINE      CODE     ---       #577
      00FF82A4H   LINE      CODE     ---       #579
      00FF82A4H   LINE      CODE     ---       #591
      00FF82A7H   LINE      CODE     ---       #596
      00FF82ADH   LINE      CODE     ---       #605
      00FF82B0H   LINE      CODE     ---       #615
      00FF82B5H   LINE      CODE     ---       #622
      ---         BLOCKEND  ---      ---       LVL=0

      00FF8791H   BLOCK     CODE     ---       LVL=0
      00FF8791H   LINE      CODE     ---       #625
      00FF8791H   LINE      CODE     ---       #627
      00FF8791H   LINE      CODE     ---       #628
      00FF879BH   LINE      CODE     ---       #629
      ---         BLOCKEND  ---      ---       LVL=0

      00FF8106H   BLOCK     CODE     ---       LVL=0
      REG=7       REGSYM    ---      ---       pCmdAddress
      00FF810AH   BLOCK     CODE     NEAR LAB  LVL=1
      ---         BLOCKEND  ---      ---       LVL=1
      00FF8106H   LINE      CODE     ---       #633
      00FF810AH   LINE      CODE     ---       #634
      00FF810AH   LINE      CODE     ---       #635
      00FF810AH   LINE      CODE     ---       #639
      00FF810DH   LINE      CODE     ---       #645
      00FF8111H   LINE      CODE     ---       #647
      00FF8118H   LINE      CODE     ---       #649
      00FF8122H   LINE      CODE     ---       #650
      ---         BLOCKEND  ---      ---       LVL=0

      00FF85D2H   BLOCK     CODE     ---       LVL=0
      00FF85D2H   LINE      CODE     ---       #652
      00FF85D2H   LINE      CODE     ---       #653
      00FF85D2H   LINE      CODE     ---       #655
      00FF85D2H   LINE      CODE     ---       #660
      00FF85D5H   LINE      CODE     ---       #663
      00FF85D5H   LINE      CODE     ---       #671
      00FF85DAH   LINE      CODE     ---       #674
      ---         BLOCKEND  ---      ---       LVL=0

      00FF879EH   BLOCK     CODE     ---       LVL=0
      00FF879EH   LINE      CODE     ---       #678
      00FF879EH   LINE      CODE     ---       #680
      00FF879EH   LINE      CODE     ---       #681
      00FF87A8H   LINE      CODE     ---       #685
      ---         BLOCKEND  ---      ---       LVL=0

      00FF87ABH   BLOCK     CODE     ---       LVL=0
      00FF87ABH   LINE      CODE     ---       #689
      00FF87ABH   LINE      CODE     ---       #691
      00FF87ABH   LINE      CODE     ---       #692
      00FF87B5H   LINE      CODE     ---       #693
      ---         BLOCKEND  ---      ---       LVL=0

      00FF7376H   BLOCK     CODE     ---       LVL=0
L251 LINKER/LOCATER V4.66.93.0                                                        01/04/2022  17:06:11  PAGE 70


      REG=7       REGSYM    ---      ---       pCmdAddress
      00FF737CH   BLOCK     CODE     NEAR LAB  LVL=1
      0000AD39H   SYMBOL    EDATA    BYTE      ModemType
      R13         REGSYM    ---      BYTE      BandType
      R15         REGSYM    ---      BYTE      ClockMode
      ---         BLOCKEND  ---      ---       LVL=1
      00FF7376H   LINE      CODE     ---       #696
      00FF737CH   LINE      CODE     ---       #697
      00FF737CH   LINE      CODE     ---       #698
      00FF737CH   LINE      CODE     ---       #699
      00FF737CH   LINE      CODE     ---       #700
      00FF737CH   LINE      CODE     ---       #706
      00FF737FH   LINE      CODE     ---       #710
      00FF7383H   LINE      CODE     ---       #711
      00FF738AH   LINE      CODE     ---       #712
      00FF738EH   LINE      CODE     ---       #713
      00FF7392H   LINE      CODE     ---       #716
      00FF7397H   LINE      CODE     ---       #719
      00FF73A8H   LINE      CODE     ---       #721
      00FF73B2H   LINE      CODE     ---       #722
      ---         BLOCKEND  ---      ---       LVL=0

      00FF697AH   BLOCK     CODE     ---       LVL=0
      REG=7       REGSYM    ---      ---       pCmdAddress
      00FF697EH   BLOCK     CODE     NEAR LAB  LVL=1
      ---         BLOCKEND  ---      ---       LVL=1
      00FF697AH   LINE      CODE     ---       #724
      00FF697EH   LINE      CODE     ---       #725
      00FF697EH   LINE      CODE     ---       #726
      00FF697EH   LINE      CODE     ---       #732
      00FF6981H   LINE      CODE     ---       #739
      00FF6985H   LINE      CODE     ---       #741
      00FF698EH   LINE      CODE     ---       #743
      00FF6992H   LINE      CODE     ---       #744
      00FF6995H   LINE      CODE     ---       #746
      00FF69A3H   LINE      CODE     ---       #748
      00FF69A9H   LINE      CODE     ---       #749
      00FF69B1H   LINE      CODE     ---       #750
      00FF69B1H   LINE      CODE     ---       #751
      00FF69B9H   LINE      CODE     ---       #752
      00FF69BAH   LINE      CODE     ---       #753
      00FF69BCH   LINE      CODE     ---       #756
      00FF69C2H   LINE      CODE     ---       #757
      00FF69C8H   LINE      CODE     ---       #758
      00FF69C8H   LINE      CODE     ---       #759
      00FF69C8H   LINE      CODE     ---       #761
      00FF69D2H   LINE      CODE     ---       #762
      ---         BLOCKEND  ---      ---       LVL=0

      00FF7E44H   BLOCK     CODE     ---       LVL=0
      REG=1       REGSYM    ---      ---       pCmdAddress
      00FF7E46H   BLOCK     CODE     NEAR LAB  LVL=1
      ---         BLOCKEND  ---      ---       LVL=1
      00FF7E44H   LINE      CODE     ---       #764
      00FF7E46H   LINE      CODE     ---       #765
      00FF7E46H   LINE      CODE     ---       #776
      00FF7E61H   LINE      CODE     ---       #779
      00FF7E61H   LINE      CODE     ---       #782
      00FF7E61H   LINE      CODE     ---       #783
      00FF7E61H   LINE      CODE     ---       #785
      00FF7E61H   LINE      CODE     ---       #788
      ---         BLOCKEND  ---      ---       LVL=0

      00FF634CH   BLOCK     CODE     ---       LVL=0
      00FF634CH   LINE      CODE     ---       #810
L251 LINKER/LOCATER V4.66.93.0                                                        01/04/2022  17:06:11  PAGE 71


      00FF634CH   LINE      CODE     ---       #819
      00FF634CH   LINE      CODE     ---       #822
      00FF6353H   LINE      CODE     ---       #824
      00FF635BH   LINE      CODE     ---       #825
      00FF635FH   LINE      CODE     ---       #826
      00FF6365H   LINE      CODE     ---       #827
      00FF636AH   LINE      CODE     ---       #839
      00FF636DH   LINE      CODE     ---       #842
      00FF637EH   LINE      CODE     ---       #843
      00FF638EH   LINE      CODE     ---       #844
      00FF63A0H   LINE      CODE     ---       #845
      00FF63AAH   LINE      CODE     ---       #848
      ---         BLOCKEND  ---      ---       LVL=0

      00FF6D6CH   BLOCK     CODE     ---       LVL=0
      REG=1       REGSYM    ---      ---       pCmdAddress
      00FF6D6CH   LINE      CODE     ---       #851
      00FF6D6EH   LINE      CODE     ---       #855
      00FF6D72H   LINE      CODE     ---       #857
      00FF6D79H   LINE      CODE     ---       #858
      00FF6D7BH   LINE      CODE     ---       #860
      00FF6D82H   LINE      CODE     ---       #861
      00FF6D84H   LINE      CODE     ---       #863
      00FF6D8FH   LINE      CODE     ---       #864
      00FF6D91H   LINE      CODE     ---       #866
      00FF6D9CH   LINE      CODE     ---       #867
      00FF6D9EH   LINE      CODE     ---       #869
      00FF6DA5H   LINE      CODE     ---       #870
      00FF6DA7H   LINE      CODE     ---       #872
      00FF6DAEH   LINE      CODE     ---       #874
      ---         BLOCKEND  ---      ---       LVL=0

      00FF73B7H   BLOCK     CODE     ---       LVL=0
      REG=7       REGSYM    ---      ---       pCmdAddress
      00FF73B7H   LINE      CODE     ---       #878
      00FF73BBH   LINE      CODE     ---       #880
      00FF73D6H   LINE      CODE     ---       #883
      00FF73E3H   LINE      CODE     ---       #885
      00FF73EBH   LINE      CODE     ---       #887
      00FF73F5H   LINE      CODE     ---       #888
      ---         BLOCKEND  ---      ---       LVL=0

      00FF770FH   BLOCK     CODE     ---       LVL=0
      REG=7       REGSYM    ---      ---       pCmdAddress
      00FF770FH   LINE      CODE     ---       #890
      00FF7713H   LINE      CODE     ---       #892
      00FF772EH   LINE      CODE     ---       #895
      00FF773BH   LINE      CODE     ---       #897
      00FF7745H   LINE      CODE     ---       #898
      ---         BLOCKEND  ---      ---       LVL=0

      00FF85E4H   BLOCK     CODE     ---       LVL=0
      REG=3       REGSYM    ---      ---       pCmdAddress
      00FF85E4H   LINE      CODE     ---       #900
      00FF85E4H   LINE      CODE     ---       #902
      00FF85ECH   LINE      CODE     ---       #903
      ---         BLOCKEND  ---      ---       LVL=0

      00FF85F6H   BLOCK     CODE     ---       LVL=0
      REG=3       REGSYM    ---      ---       pCmdAddress
      00FF85F6H   LINE      CODE     ---       #906
      00FF85F6H   LINE      CODE     ---       #911
      00FF85FEH   LINE      CODE     ---       #913
      ---         BLOCKEND  ---      ---       LVL=0

L251 LINKER/LOCATER V4.66.93.0                                                        01/04/2022  17:06:11  PAGE 72


      00FF8086H   BLOCK     CODE     ---       LVL=0
      00FF8086H   LINE      CODE     ---       #918
      00FF8086H   LINE      CODE     ---       #929
      00FF8089H   LINE      CODE     ---       #933
      00FF8089H   LINE      CODE     ---       #936
      00FF808EH   LINE      CODE     ---       #938
      00FF809DH   LINE      CODE     ---       #945
      ---         BLOCKEND  ---      ---       LVL=0

      00FF722AH   BLOCK     CODE     ---       LVL=0
      REG=7       REGSYM    ---      ---       pCmdAddress
      00FF722AH   LINE      CODE     ---       #948
      00FF722EH   LINE      CODE     ---       #954
      00FF7231H   LINE      CODE     ---       #961
      00FF7235H   LINE      CODE     ---       #963
      00FF723CH   LINE      CODE     ---       #964
      00FF7242H   LINE      CODE     ---       #967
      00FF724EH   LINE      CODE     ---       #968
      00FF7260H   LINE      CODE     ---       #971
      00FF726AH   LINE      CODE     ---       #972
      ---         BLOCKEND  ---      ---       LVL=0

      00FF691CH   BLOCK     CODE     ---       LVL=0
      REG=7       REGSYM    ---      ---       pCmdAddress
      00FF6922H   BLOCK     CODE     NEAR LAB  LVL=1
      R11         REGSYM    ---      BYTE      crcType
      R11         REGSYM    ---      BYTE      whiteningEn
      R13         REGSYM    ---      BYTE      result
      ---         BLOCKEND  ---      ---       LVL=1
      00FF691CH   LINE      CODE     ---       #973
      00FF6922H   LINE      CODE     ---       #974
      00FF6922H   LINE      CODE     ---       #976
      00FF6924H   LINE      CODE     ---       #982
      00FF6927H   LINE      CODE     ---       #989
      00FF692BH   LINE      CODE     ---       #991
      00FF692EH   LINE      CODE     ---       #1008
      00FF6930H   LINE      CODE     ---       #1009
      00FF693BH   LINE      CODE     ---       #1010
      00FF693EH   LINE      CODE     ---       #1011
      00FF6950H   LINE      CODE     ---       #1013
      00FF6953H   LINE      CODE     ---       #1014
      00FF6957H   LINE      CODE     ---       #1015
      00FF695AH   LINE      CODE     ---       #1016
      00FF6961H   LINE      CODE     ---       #1018
      00FF696BH   LINE      CODE     ---       #1021
      00FF6975H   LINE      CODE     ---       #1022
      ---         BLOCKEND  ---      ---       LVL=0

      00FF7FB8H   BLOCK     CODE     ---       LVL=0
      00FF7FB8H   LINE      CODE     ---       #1074
      00FF7FB8H   LINE      CODE     ---       #1085
      00FF7FBBH   LINE      CODE     ---       #1089
      00FF7FBBH   LINE      CODE     ---       #1092
      00FF7FC2H   LINE      CODE     ---       #1094
      00FF7FD1H   LINE      CODE     ---       #1101
      ---         BLOCKEND  ---      ---       LVL=0

      00FF3DAFH   BLOCK     CODE     ---       LVL=0
      REG=7       REGSYM    ---      ---       pCmdAddress
      00FF3DB3H   BLOCK     CODE     NEAR LAB  LVL=1
      REG=6       REGSYM    ---      ---       pCmdIn
      ---         BLOCKEND  ---      ---       LVL=1
      00FF3DAFH   LINE      CODE     ---       #1104
      00FF3DB3H   LINE      CODE     ---       #1105
      00FF3DB3H   LINE      CODE     ---       #1112
L251 LINKER/LOCATER V4.66.93.0                                                        01/04/2022  17:06:11  PAGE 73


      00FF3DB6H   LINE      CODE     ---       #1119
      00FF3DB8H   LINE      CODE     ---       #1121
      00FF3DC1H   LINE      CODE     ---       #1124
      00FF3DCBH   LINE      CODE     ---       #1125
      00FF3DCFH   LINE      CODE     ---       #1128
      00FF3DD5H   LINE      CODE     ---       #1129
      00FF3DDFH   LINE      CODE     ---       #1131
      00FF3DEDH   LINE      CODE     ---       #1132
      00FF3E01H   LINE      CODE     ---       #1133
      00FF3E1DH   LINE      CODE     ---       #1138
      00FF3E1FH   LINE      CODE     ---       #1141
      00FF3E23H   LINE      CODE     ---       #1143
      00FF3E2DH   LINE      CODE     ---       #1145
      00FF3E32H   LINE      CODE     ---       #1146
      00FF3E39H   LINE      CODE     ---       #1148
      00FF3E41H   LINE      CODE     ---       #1149
      00FF3E41H   LINE      CODE     ---       #1151
      00FF3E4BH   LINE      CODE     ---       #1153
      00FF3E57H   LINE      CODE     ---       #1154
      00FF3E69H   LINE      CODE     ---       #1159
      00FF3E69H   LINE      CODE     ---       #1166
      00FF3E73H   LINE      CODE     ---       #1167
      ---         BLOCKEND  ---      ---       LVL=0

      00FF526CH   BLOCK     CODE     ---       LVL=0
      REG=7       REGSYM    ---      ---       pCmdAddress
      00FF5270H   BLOCK     CODE     NEAR LAB  LVL=1
      REG=7       REGSYM    ---      ---       pCmdIn
      ---         BLOCKEND  ---      ---       LVL=1
      00FF526CH   LINE      CODE     ---       #1169
      00FF5270H   LINE      CODE     ---       #1170
      00FF5270H   LINE      CODE     ---       #1177
      00FF5273H   LINE      CODE     ---       #1181
      00FF528EH   LINE      CODE     ---       #1184
      00FF528EH   LINE      CODE     ---       #1187
      00FF5294H   LINE      CODE     ---       #1188
      00FF5298H   LINE      CODE     ---       #1190
      00FF52A3H   LINE      CODE     ---       #1192
      00FF52B2H   LINE      CODE     ---       #1193
      00FF52CDH   LINE      CODE     ---       #1194
      00FF52E8H   LINE      CODE     ---       #1203
      00FF52F2H   LINE      CODE     ---       #1204
      ---         BLOCKEND  ---      ---       LVL=0

      00FF7C76H   BLOCK     CODE     ---       LVL=0
      REG=7       REGSYM    ---      ---       pCmdAddress
      00FF7C7AH   BLOCK     CODE     NEAR LAB  LVL=1
      R15         REGSYM    ---      BYTE      bandType
      ---         BLOCKEND  ---      ---       LVL=1
      00FF7C76H   LINE      CODE     ---       #1208
      00FF7C7AH   LINE      CODE     ---       #1209
      00FF7C7AH   LINE      CODE     ---       #1221
      00FF7C7DH   LINE      CODE     ---       #1228
      00FF7C81H   LINE      CODE     ---       #1229
      00FF7C84H   LINE      CODE     ---       #1232
      00FF7C89H   LINE      CODE     ---       #1234
      00FF7C96H   LINE      CODE     ---       #1240
      00FF7CA0H   LINE      CODE     ---       #1241
      ---         BLOCKEND  ---      ---       LVL=0

      00FF7003H   BLOCK     CODE     ---       LVL=0
      REG=7       REGSYM    ---      ---       pCmdAddress
      00FF7007H   BLOCK     CODE     NEAR LAB  LVL=1
      R15         REGSYM    ---      BYTE      modIdx
      ---         BLOCKEND  ---      ---       LVL=1
L251 LINKER/LOCATER V4.66.93.0                                                        01/04/2022  17:06:11  PAGE 74


      00FF7003H   LINE      CODE     ---       #1243
      00FF7007H   LINE      CODE     ---       #1244
      00FF7007H   LINE      CODE     ---       #1251
      00FF700AH   LINE      CODE     ---       #1258
      00FF700EH   LINE      CODE     ---       #1260
      00FF7015H   LINE      CODE     ---       #1261
      00FF701BH   LINE      CODE     ---       #1262
      00FF701FH   LINE      CODE     ---       #1263
      00FF702BH   LINE      CODE     ---       #1264
      00FF703DH   LINE      CODE     ---       #1266
      00FF7047H   LINE      CODE     ---       #1267
      ---         BLOCKEND  ---      ---       LVL=0

      00FF68BEH   BLOCK     CODE     ---       LVL=0
      REG=7       REGSYM    ---      ---       pCmdAddress
      00FF68C4H   BLOCK     CODE     NEAR LAB  LVL=1
      R11         REGSYM    ---      BYTE      crcType
      R11         REGSYM    ---      BYTE      whiteningEn
      R13         REGSYM    ---      BYTE      result
      ---         BLOCKEND  ---      ---       LVL=1
      00FF68BEH   LINE      CODE     ---       #1269
      00FF68C4H   LINE      CODE     ---       #1270
      00FF68C4H   LINE      CODE     ---       #1272
      00FF68C6H   LINE      CODE     ---       #1278
      00FF68C9H   LINE      CODE     ---       #1285
      00FF68CDH   LINE      CODE     ---       #1287
      00FF68D0H   LINE      CODE     ---       #1288
      00FF68D2H   LINE      CODE     ---       #1289
      00FF68DDH   LINE      CODE     ---       #1290
      00FF68E0H   LINE      CODE     ---       #1291
      00FF68F2H   LINE      CODE     ---       #1293
      00FF68F5H   LINE      CODE     ---       #1295
      00FF68F9H   LINE      CODE     ---       #1296
      00FF68FCH   LINE      CODE     ---       #1297
      00FF6903H   LINE      CODE     ---       #1299
      00FF690DH   LINE      CODE     ---       #1305
      00FF6917H   LINE      CODE     ---       #1306
      ---         BLOCKEND  ---      ---       LVL=0

      00FF8163H   BLOCK     CODE     ---       LVL=0
      REG=7       REGSYM    ---      ---       pCmdAddress
      00FF8167H   BLOCK     CODE     NEAR LAB  LVL=1
      R11         REGSYM    ---      BYTE      preambleLen
      ---         BLOCKEND  ---      ---       LVL=1
      00FF8163H   LINE      CODE     ---       #1308
      00FF8167H   LINE      CODE     ---       #1309
      00FF8167H   LINE      CODE     ---       #1316
      00FF816AH   LINE      CODE     ---       #1323
      00FF816EH   LINE      CODE     ---       #1325
      00FF8171H   LINE      CODE     ---       #1326
      00FF8174H   LINE      CODE     ---       #1332
      00FF817EH   LINE      CODE     ---       #1333
      ---         BLOCKEND  ---      ---       LVL=0

      00FF6D1EH   BLOCK     CODE     ---       LVL=0
      REG=7       REGSYM    ---      ---       pCmdAddress
      00FF6D22H   BLOCK     CODE     NEAR LAB  LVL=1
      DR12        REGSYM    ---      DWORD     sfdContent
      ---         BLOCKEND  ---      ---       LVL=1
      00FF6D1EH   LINE      CODE     ---       #1335
      00FF6D22H   LINE      CODE     ---       #1336
      00FF6D22H   LINE      CODE     ---       #1343
      00FF6D25H   LINE      CODE     ---       #1347
      00FF6D40H   LINE      CODE     ---       #1348
      00FF6D44H   LINE      CODE     ---       #1350
L251 LINKER/LOCATER V4.66.93.0                                                        01/04/2022  17:06:11  PAGE 75


      00FF6D4DH   LINE      CODE     ---       #1351
      00FF6D4DH   LINE      CODE     ---       #1352
      00FF6D56H   LINE      CODE     ---       #1353
      00FF6D5FH   LINE      CODE     ---       #1359
      00FF6D69H   LINE      CODE     ---       #1360
      ---         BLOCKEND  ---      ---       LVL=0

      00FF4B9AH   BLOCK     CODE     ---       LVL=0
      REG=7       REGSYM    ---      ---       pCmdAddress
      00FF4B9EH   BLOCK     CODE     NEAR LAB  LVL=1
      REG=3       REGSYM    ---      ---       pCmdIn
      DR12        REGSYM    ---      DWORD     freqTmp
      0000AD3AH   SYMBOL    EDATA    BYTE      result
      ---         BLOCKEND  ---      ---       LVL=1
      00FF4B9AH   LINE      CODE     ---       #1446
      00FF4B9EH   LINE      CODE     ---       #1447
      00FF4B9EH   LINE      CODE     ---       #1456
      00FF4BA3H   LINE      CODE     ---       #1481
      00FF4BA6H   LINE      CODE     ---       #1486
      00FF4BC1H   LINE      CODE     ---       #1489
      00FF4BC3H   LINE      CODE     ---       #1490
      00FF4BCBH   LINE      CODE     ---       #1494
      00FF4BD0H   LINE      CODE     ---       #1497
      00FF4BDCH   LINE      CODE     ---       #1498
      00FF4BDEH   LINE      CODE     ---       #1501
      00FF4BE2H   LINE      CODE     ---       #1502
      00FF4BE6H   LINE      CODE     ---       #1504
      00FF4BEEH   LINE      CODE     ---       #1506
      00FF4BEEH   LINE      CODE     ---       #1507
      00FF4BF0H   LINE      CODE     ---       #1511
      00FF4BF5H   LINE      CODE     ---       #1514
      00FF4C0DH   LINE      CODE     ---       #1515
      00FF4C0FH   LINE      CODE     ---       #1518
      00FF4C13H   LINE      CODE     ---       #1519
      00FF4C17H   LINE      CODE     ---       #1521
      00FF4C1FH   LINE      CODE     ---       #1523
      00FF4C1FH   LINE      CODE     ---       #1524
      00FF4C21H   LINE      CODE     ---       #1528
      00FF4C27H   LINE      CODE     ---       #1529
      00FF4C27H   LINE      CODE     ---       #1531
      00FF4C33H   LINE      CODE     ---       #1532
      ---         BLOCKEND  ---      ---       LVL=0

      00FF6E4FH   BLOCK     CODE     ---       LVL=0
      REG=7       REGSYM    ---      ---       pCmdAddress
      00FF6E4FH   LINE      CODE     ---       #1535
      00FF6E53H   LINE      CODE     ---       #1540
      00FF6E56H   LINE      CODE     ---       #1543
      00FF6E71H   LINE      CODE     ---       #1544
      00FF6E75H   LINE      CODE     ---       #1546
      00FF6E80H   LINE      CODE     ---       #1547
      00FF6E80H   LINE      CODE     ---       #1550
      00FF6E80H   LINE      CODE     ---       #1551
      00FF6E80H   LINE      CODE     ---       #1554
      00FF6E86H   LINE      CODE     ---       #1555
      00FF6E8EH   LINE      CODE     ---       #1557
      00FF6E96H   LINE      CODE     ---       #1558
      ---         BLOCKEND  ---      ---       LVL=0

      00FF7A6DH   BLOCK     CODE     ---       LVL=0
      REG=7       REGSYM    ---      ---       pCmdAddress
      00FF7A6DH   LINE      CODE     ---       #1561
      00FF7A71H   LINE      CODE     ---       #1566
      00FF7A75H   LINE      CODE     ---       #1569
      00FF7A85H   LINE      CODE     ---       #1570
L251 LINKER/LOCATER V4.66.93.0                                                        01/04/2022  17:06:11  PAGE 76


      00FF7A8AH   LINE      CODE     ---       #1573
      00FF7A93H   LINE      CODE     ---       #1574
      00FF7A9BH   LINE      CODE     ---       #1575
      ---         BLOCKEND  ---      ---       LVL=0

      00FF833CH   BLOCK     CODE     ---       LVL=0
      REG=1       REGSYM    ---      ---       pCmdQueueAddr
      WR4         REGSYM    ---      WORD      cmdQueueLen
      00FF833EH   BLOCK     CODE     NEAR LAB  LVL=1
      R10         REGSYM    ---      BYTE      cmdQueuePayloadIdx
      ---         BLOCKEND  ---      ---       LVL=1
      00FF833CH   LINE      CODE     ---       #1578
      00FF833EH   LINE      CODE     ---       #1579
      00FF833EH   LINE      CODE     ---       #1581
      00FF8342H   LINE      CODE     ---       #1582
      00FF8353H   LINE      CODE     ---       #1583
      ---         BLOCKEND  ---      ---       LVL=0

      00FF3665H   BLOCK     CODE     ---       LVL=0
      00FF3669H   BLOCK     CODE     NEAR LAB  LVL=1
      R10         REGSYM    ---      BYTE      MacState
      R13         REGSYM    ---      BYTE      queueClr
      WR14        REGSYM    ---      WORD      macFunEventQueue
      ---         BLOCKEND  ---      ---       LVL=1
      00FF3665H   LINE      CODE     ---       #1590
      00FF3669H   LINE      CODE     ---       #1591
      00FF3669H   LINE      CODE     ---       #1594
      00FF3669H   LINE      CODE     ---       #1595
      00FF366BH   LINE      CODE     ---       #1596
      00FF3671H   LINE      CODE     ---       #1600
      00FF3675H   LINE      CODE     ---       #1602
      00FF3677H   LINE      CODE     ---       #1603
      00FF3688H   LINE      CODE     ---       #1605
      00FF3688H   LINE      CODE     ---       #1606
      00FF3688H   LINE      CODE     ---       #1607
      00FF3688H   LINE      CODE     ---       #1608
      00FF368BH   LINE      CODE     ---       #1609
      00FF368FH   LINE      CODE     ---       #1610
      00FF3691H   LINE      CODE     ---       #1611
      00FF3691H   LINE      CODE     ---       #1615
      00FF3693H   LINE      CODE     ---       #1618
      00FF3696H   LINE      CODE     ---       #1619
      00FF36A1H   LINE      CODE     ---       #1620
      00FF36A4H   LINE      CODE     ---       #1621
      00FF36A9H   LINE      CODE     ---       #1622
      00FF36AEH   LINE      CODE     ---       #1623
      00FF36B4H   LINE      CODE     ---       #1624
      00FF36D3H   LINE      CODE     ---       #1626
      00FF36D6H   LINE      CODE     ---       #1627
      00FF36E1H   LINE      CODE     ---       #1628
      00FF36E1H   LINE      CODE     ---       #1629
      00FF36E7H   LINE      CODE     ---       #1631
      00FF36EEH   LINE      CODE     ---       #1637
      00FF36F0H   LINE      CODE     ---       #1639
      00FF36F0H   LINE      CODE     ---       #1640
      00FF36F5H   LINE      CODE     ---       #1641
      00FF36F5H   LINE      CODE     ---       #1642
      00FF36FAH   LINE      CODE     ---       #1643
      00FF36FAH   LINE      CODE     ---       #1669
      00FF36FAH   LINE      CODE     ---       #1670
      00FF36FAH   LINE      CODE     ---       #1671
      00FF36FAH   LINE      CODE     ---       #1673
      00FF36FDH   LINE      CODE     ---       #1677
      00FF3700H   LINE      CODE     ---       #1684
      00FF3705H   LINE      CODE     ---       #1686
L251 LINKER/LOCATER V4.66.93.0                                                        01/04/2022  17:06:11  PAGE 77


      00FF3707H   LINE      CODE     ---       #1687
      00FF3709H   LINE      CODE     ---       #1689
      00FF370CH   LINE      CODE     ---       #1690
      00FF3711H   LINE      CODE     ---       #1691
      00FF3715H   LINE      CODE     ---       #1693
      00FF372BH   LINE      CODE     ---       #1698
      00FF372EH   LINE      CODE     ---       #1700
      00FF3734H   LINE      CODE     ---       #1701
      00FF3739H   LINE      CODE     ---       #1705
      ---         BLOCKEND  ---      ---       LVL=0

      00FF3E76H   BLOCK     CODE     ---       LVL=0
      R11         REGSYM    ---      BYTE      cmdId
      REG=4       REGSYM    ---      ---       pCmdAddress
      REG=2       REGSYM    ---      ---       pCmdCnfStatus
      00FF3E76H   LINE      CODE     ---       #1708
      00FF3E78H   LINE      CODE     ---       #1710
      00FF3EE3H   LINE      CODE     ---       #1712
      00FF3EE3H   LINE      CODE     ---       #1713
      00FF3EE8H   LINE      CODE     ---       #1714
      00FF3EE8H   LINE      CODE     ---       #1715
      00FF3EE8H   LINE      CODE     ---       #1716
      00FF3EEDH   LINE      CODE     ---       #1717
      00FF3EEDH   LINE      CODE     ---       #1718
      00FF3EEDH   LINE      CODE     ---       #1719
      00FF3EF2H   LINE      CODE     ---       #1720
      00FF3EF2H   LINE      CODE     ---       #1722
      00FF3EF2H   LINE      CODE     ---       #1723
      00FF3EF7H   LINE      CODE     ---       #1724
      00FF3EF7H   LINE      CODE     ---       #1726
      00FF3EF7H   LINE      CODE     ---       #1727
      00FF3EFCH   LINE      CODE     ---       #1728
      00FF3EFCH   LINE      CODE     ---       #1729
      00FF3EFCH   LINE      CODE     ---       #1730
      00FF3F01H   LINE      CODE     ---       #1731
      00FF3F01H   LINE      CODE     ---       #1732
      00FF3F01H   LINE      CODE     ---       #1733
      00FF3F06H   LINE      CODE     ---       #1734
      00FF3F06H   LINE      CODE     ---       #1735
      00FF3F06H   LINE      CODE     ---       #1736
      00FF3F0BH   LINE      CODE     ---       #1737
      00FF3F0BH   LINE      CODE     ---       #1738
      00FF3F0BH   LINE      CODE     ---       #1739
      00FF3F10H   LINE      CODE     ---       #1740
      00FF3F10H   LINE      CODE     ---       #1741
      00FF3F10H   LINE      CODE     ---       #1742
      00FF3F15H   LINE      CODE     ---       #1743
      00FF3F15H   LINE      CODE     ---       #1744
      00FF3F15H   LINE      CODE     ---       #1745
      00FF3F1AH   LINE      CODE     ---       #1746
      00FF3F1AH   LINE      CODE     ---       #1747
      00FF3F1AH   LINE      CODE     ---       #1748
      00FF3F1AH   LINE      CODE     ---       #1749
      00FF3F1CH   LINE      CODE     ---       #1750
      00FF3F1CH   LINE      CODE     ---       #1751
      00FF3F21H   LINE      CODE     ---       #1752
      00FF3F21H   LINE      CODE     ---       #1753
      00FF3F21H   LINE      CODE     ---       #1754
      00FF3F26H   LINE      CODE     ---       #1755
      00FF3F26H   LINE      CODE     ---       #1756
      00FF3F26H   LINE      CODE     ---       #1757
      00FF3F2BH   LINE      CODE     ---       #1758
      00FF3F2BH   LINE      CODE     ---       #1759
      00FF3F2BH   LINE      CODE     ---       #1760
      00FF3F30H   LINE      CODE     ---       #1761
L251 LINKER/LOCATER V4.66.93.0                                                        01/04/2022  17:06:11  PAGE 78


      00FF3F30H   LINE      CODE     ---       #1762
      00FF3F30H   LINE      CODE     ---       #1763
      00FF3F35H   LINE      CODE     ---       #1764
      00FF3F35H   LINE      CODE     ---       #1765
      00FF3F35H   LINE      CODE     ---       #1766
      00FF3F3AH   LINE      CODE     ---       #1767
      00FF3F3AH   LINE      CODE     ---       #1768
      00FF3F3AH   LINE      CODE     ---       #1769
      ---         BLOCKEND  ---      ---       LVL=0

      00FF796FH   BLOCK     CODE     ---       LVL=0
      R3          REGSYM    ---      BYTE      cmdId
      REG=3       REGSYM    ---      ---       pCmdAddress
      REG=2       REGSYM    ---      ---       pCmdCnfStatus
      00FF796FH   LINE      CODE     ---       #1772
      00FF7971H   LINE      CODE     ---       #1774
      00FF798AH   LINE      CODE     ---       #1776
      00FF798AH   LINE      CODE     ---       #1777
      00FF798DH   LINE      CODE     ---       #1778
      00FF798DH   LINE      CODE     ---       #1779
      00FF798DH   LINE      CODE     ---       #1780
      00FF7990H   LINE      CODE     ---       #1781
      00FF7990H   LINE      CODE     ---       #1782
      00FF7990H   LINE      CODE     ---       #1783
      00FF7993H   LINE      CODE     ---       #1784
      00FF7993H   LINE      CODE     ---       #1785
      00FF7993H   LINE      CODE     ---       #1786
      00FF7996H   LINE      CODE     ---       #1787
      00FF7996H   LINE      CODE     ---       #1788
      00FF7996H   LINE      CODE     ---       #1789
      00FF7999H   LINE      CODE     ---       #1790
      00FF7999H   LINE      CODE     ---       #1791
      00FF7999H   LINE      CODE     ---       #1792
      00FF799CH   LINE      CODE     ---       #1793
      00FF799CH   LINE      CODE     ---       #1794
      00FF799CH   LINE      CODE     ---       #1795
      00FF79A1H   LINE      CODE     ---       #1796
      00FF79A1H   LINE      CODE     ---       #1797
      00FF79A1H   LINE      CODE     ---       #1798
      ---         BLOCKEND  ---      ---       LVL=0

      00FF8231H   BLOCK     CODE     ---       LVL=0
      R3          REGSYM    ---      BYTE      cmdId
      REG=3       REGSYM    ---      ---       pCmdAddress
      REG=2       REGSYM    ---      ---       pCmdCnfStatus
      00FF8231H   LINE      CODE     ---       #1802
      00FF8233H   LINE      CODE     ---       #1804
      00FF823FH   LINE      CODE     ---       #1806
      00FF823FH   LINE      CODE     ---       #1807
      00FF8242H   LINE      CODE     ---       #1808
      00FF8242H   LINE      CODE     ---       #1809
      00FF8242H   LINE      CODE     ---       #1810
      00FF8245H   LINE      CODE     ---       #1811
      00FF8245H   LINE      CODE     ---       #1812
      00FF8245H   LINE      CODE     ---       #1813
      00FF8248H   LINE      CODE     ---       #1814
      00FF8248H   LINE      CODE     ---       #1815
      00FF8248H   LINE      CODE     ---       #1816
      00FF824DH   LINE      CODE     ---       #1817
      00FF824DH   LINE      CODE     ---       #1818
      00FF824DH   LINE      CODE     ---       #1820
      ---         BLOCKEND  ---      ---       LVL=0

      00FF7CCFH   BLOCK     CODE     ---       LVL=0
      R3          REGSYM    ---      BYTE      cmdId
L251 LINKER/LOCATER V4.66.93.0                                                        01/04/2022  17:06:11  PAGE 79


      REG=3       REGSYM    ---      ---       pCmdAddress
      REG=2       REGSYM    ---      ---       pCmdCnfStatus
      00FF7CCFH   LINE      CODE     ---       #1824
      00FF7CD1H   LINE      CODE     ---       #1826
      00FF7CE5H   LINE      CODE     ---       #1828
      00FF7CE5H   LINE      CODE     ---       #1829
      00FF7CE8H   LINE      CODE     ---       #1830
      00FF7CE8H   LINE      CODE     ---       #1831
      00FF7CE8H   LINE      CODE     ---       #1832
      00FF7CEBH   LINE      CODE     ---       #1833
      00FF7CEBH   LINE      CODE     ---       #1834
      00FF7CEBH   LINE      CODE     ---       #1835
      00FF7CEEH   LINE      CODE     ---       #1836
      00FF7CEEH   LINE      CODE     ---       #1837
      00FF7CEEH   LINE      CODE     ---       #1838
      00FF7CF1H   LINE      CODE     ---       #1839
      00FF7CF1H   LINE      CODE     ---       #1840
      00FF7CF1H   LINE      CODE     ---       #1841
      00FF7CF4H   LINE      CODE     ---       #1842
      00FF7CF4H   LINE      CODE     ---       #1843
      00FF7CF4H   LINE      CODE     ---       #1844
      00FF7CF9H   LINE      CODE     ---       #1845
      00FF7CF9H   LINE      CODE     ---       #1846
      00FF7CF9H   LINE      CODE     ---       #1848
      ---         BLOCKEND  ---      ---       LVL=0

      00FF824EH   BLOCK     CODE     ---       LVL=0
      R3          REGSYM    ---      BYTE      cmdId
      REG=3       REGSYM    ---      ---       pCmdAddress
      REG=2       REGSYM    ---      ---       pCmdCnfStatus
      00FF824EH   LINE      CODE     ---       #1852
      00FF8250H   LINE      CODE     ---       #1854
      00FF825CH   LINE      CODE     ---       #1856
      00FF825CH   LINE      CODE     ---       #1857
      00FF825FH   LINE      CODE     ---       #1858
      00FF825FH   LINE      CODE     ---       #1859
      00FF825FH   LINE      CODE     ---       #1860
      00FF8262H   LINE      CODE     ---       #1861
      00FF8262H   LINE      CODE     ---       #1862
      00FF8262H   LINE      CODE     ---       #1863
      00FF8265H   LINE      CODE     ---       #1864
      00FF8265H   LINE      CODE     ---       #1865
      00FF8265H   LINE      CODE     ---       #1866
      00FF826AH   LINE      CODE     ---       #1867
      00FF826AH   LINE      CODE     ---       #1868
      00FF826AH   LINE      CODE     ---       #1870
      ---         BLOCKEND  ---      ---       LVL=0

      00FF86FBH   BLOCK     CODE     ---       LVL=0
      R3          REGSYM    ---      BYTE      cmdId
      REG=3       REGSYM    ---      ---       pCmdAddress
      REG=2       REGSYM    ---      ---       pCmdCnfStatus
      00FF86FBH   LINE      CODE     ---       #1899
      00FF86FDH   LINE      CODE     ---       #1901
      00FF8701H   LINE      CODE     ---       #1903
      00FF8701H   LINE      CODE     ---       #1904
      00FF8704H   LINE      CODE     ---       #1905
      00FF8704H   LINE      CODE     ---       #1906
      00FF8704H   LINE      CODE     ---       #1907
      00FF8709H   LINE      CODE     ---       #1908
      00FF8709H   LINE      CODE     ---       #1909
      00FF8709H   LINE      CODE     ---       #1910
      ---         BLOCKEND  ---      ---       LVL=0

      00FF79A2H   BLOCK     CODE     ---       LVL=0
L251 LINKER/LOCATER V4.66.93.0                                                        01/04/2022  17:06:11  PAGE 80


      R3          REGSYM    ---      BYTE      cmdId
      REG=3       REGSYM    ---      ---       pCmdAddress
      REG=2       REGSYM    ---      ---       pCmdCnfStatus
      00FF79A2H   LINE      CODE     ---       #1912
      00FF79A4H   LINE      CODE     ---       #1914
      00FF79BDH   LINE      CODE     ---       #1916
      00FF79BDH   LINE      CODE     ---       #1917
      00FF79C0H   LINE      CODE     ---       #1918
      00FF79C0H   LINE      CODE     ---       #1919
      00FF79C0H   LINE      CODE     ---       #1920
      00FF79C3H   LINE      CODE     ---       #1921
      00FF79C3H   LINE      CODE     ---       #1922
      00FF79C3H   LINE      CODE     ---       #1923
      00FF79C6H   LINE      CODE     ---       #1924
      00FF79C6H   LINE      CODE     ---       #1925
      00FF79C6H   LINE      CODE     ---       #1926
      00FF79C9H   LINE      CODE     ---       #1927
      00FF79C9H   LINE      CODE     ---       #1928
      00FF79C9H   LINE      CODE     ---       #1929
      00FF79CCH   LINE      CODE     ---       #1930
      00FF79CCH   LINE      CODE     ---       #1931
      00FF79CCH   LINE      CODE     ---       #1932
      00FF79CFH   LINE      CODE     ---       #1933
      00FF79CFH   LINE      CODE     ---       #1934
      00FF79CFH   LINE      CODE     ---       #1935
      00FF79D4H   LINE      CODE     ---       #1936
      00FF79D4H   LINE      CODE     ---       #1937
      00FF79D4H   LINE      CODE     ---       #1938
      ---         BLOCKEND  ---      ---       LVL=0

      00FF1482H   BLOCK     CODE     ---       LVL=0
      00FF1484H   BLOCK     CODE     NEAR LAB  LVL=1
      R12         REGSYM    ---      BYTE      cmdLen
      0000ACDCH   SYMBOL    EDATA    BYTE      cmdQueueLen
      0000AB72H   SYMBOL    EDATA    ---       DTM_cmdBuffer
      0000ACDDH   SYMBOL    EDATA    ---       pRuciHeader
      0000ACDFH   SYMBOL    EDATA    BYTE      ruciHeader
      R13         REGSYM    ---      BYTE      ruciSubheader
      0000ACE0H   SYMBOL    EDATA    BYTE      cmdCnfStatus
      ---         BLOCKEND  ---      ---       LVL=1
      00FF1482H   LINE      CODE     ---       #1945
      00FF1484H   LINE      CODE     ---       #1946
      00FF1484H   LINE      CODE     ---       #1947
      00FF1489H   LINE      CODE     ---       #1952
      00FF148DH   LINE      CODE     ---       #1953
      00FF1490H   LINE      CODE     ---       #1954
      00FF1493H   LINE      CODE     ---       #1955
      00FF1493H   LINE      CODE     ---       #1958
      00FF149FH   LINE      CODE     ---       #1959
      00FF149FH   LINE      CODE     ---       #1960
      00FF14A8H   LINE      CODE     ---       #1961
      00FF14B3H   LINE      CODE     ---       #1967
      00FF14B7H   LINE      CODE     ---       #1968
      00FF14BEH   LINE      CODE     ---       #1969
      00FF14C2H   LINE      CODE     ---       #1970
      00FF14C6H   LINE      CODE     ---       #1971
      00FF14DAH   LINE      CODE     ---       #1973
      00FF14DAH   LINE      CODE     ---       #1975
      00FF14DFH   LINE      CODE     ---       #1976
      00FF1501H   LINE      CODE     ---       #1978
      00FF1501H   LINE      CODE     ---       #1979
      00FF1517H   LINE      CODE     ---       #1980
      00FF1525H   LINE      CODE     ---       #1982
      00FF1525H   LINE      CODE     ---       #1983
      00FF1528H   LINE      CODE     ---       #1986
L251 LINKER/LOCATER V4.66.93.0                                                        01/04/2022  17:06:11  PAGE 81


      00FF1528H   LINE      CODE     ---       #1987
      00FF153BH   LINE      CODE     ---       #1988
      00FF1548H   LINE      CODE     ---       #1990
      00FF1548H   LINE      CODE     ---       #1991
      00FF154AH   LINE      CODE     ---       #1995
      00FF154AH   LINE      CODE     ---       #1996
      00FF155DH   LINE      CODE     ---       #1997
      00FF156AH   LINE      CODE     ---       #1999
      00FF156AH   LINE      CODE     ---       #2000
      00FF156CH   LINE      CODE     ---       #2004
      00FF156CH   LINE      CODE     ---       #2005
      00FF157FH   LINE      CODE     ---       #2006
      00FF158CH   LINE      CODE     ---       #2008
      00FF158CH   LINE      CODE     ---       #2009
      00FF158EH   LINE      CODE     ---       #2013
      00FF158EH   LINE      CODE     ---       #2014
      00FF15A1H   LINE      CODE     ---       #2015
      00FF15AEH   LINE      CODE     ---       #2017
      00FF15B0H   LINE      CODE     ---       #2018
      00FF15B2H   LINE      CODE     ---       #2030
      00FF15B2H   LINE      CODE     ---       #2031
      00FF15B8H   LINE      CODE     ---       #2032
      00FF15B8H   LINE      CODE     ---       #2033
      00FF15B8H   LINE      CODE     ---       #2036
      00FF15C1H   LINE      CODE     ---       #2038
      00FF15C4H   LINE      CODE     ---       #2039
      00FF15C6H   LINE      CODE     ---       #2040
      00FF15C9H   LINE      CODE     ---       #2041
      00FF15D4H   LINE      CODE     ---       #2042
      00FF15E1H   LINE      CODE     ---       #2043
      00FF15E1H   LINE      CODE     ---       #2045
      00FF15E4H   LINE      CODE     ---       #2048
      00FF15E4H   LINE      CODE     ---       #2050
      00FF15E9H   LINE      CODE     ---       #2051
      00FF15F8H   LINE      CODE     ---       #2053
      00FF15F8H   LINE      CODE     ---       #2054
      00FF160BH   LINE      CODE     ---       #2055
      00FF1616H   LINE      CODE     ---       #2056
      00FF1618H   LINE      CODE     ---       #2058
      00FF1618H   LINE      CODE     ---       #2059
      00FF162BH   LINE      CODE     ---       #2060
      00FF1636H   LINE      CODE     ---       #2061
      00FF1638H   LINE      CODE     ---       #2063
      00FF1638H   LINE      CODE     ---       #2064
      00FF163EH   LINE      CODE     ---       #2065
      00FF163EH   LINE      CODE     ---       #2066
      00FF163EH   LINE      CODE     ---       #2069
      00FF1644H   LINE      CODE     ---       #2071
      00FF1647H   LINE      CODE     ---       #2072
      00FF1649H   LINE      CODE     ---       #2073
      00FF164CH   LINE      CODE     ---       #2074
      00FF1657H   LINE      CODE     ---       #2075
      00FF1664H   LINE      CODE     ---       #2076
      00FF1664H   LINE      CODE     ---       #2078
      00FF1666H   LINE      CODE     ---       #2081
      00FF1666H   LINE      CODE     ---       #2082
      00FF1669H   LINE      CODE     ---       #2083
      00FF166CH   LINE      CODE     ---       #2084
      00FF166FH   LINE      CODE     ---       #2085
      00FF167AH   LINE      CODE     ---       #2086
      00FF167AH   LINE      CODE     ---       #2087
      00FF167AH   LINE      CODE     ---       #2090
      00FF1681H   LINE      CODE     ---       #2094
      00FF168EH   LINE      CODE     ---       #2096
      00FF1694H   LINE      CODE     ---       #2097
L251 LINKER/LOCATER V4.66.93.0                                                        01/04/2022  17:06:11  PAGE 82


      00FF169CH   LINE      CODE     ---       #2098
      ---         BLOCKEND  ---      ---       LVL=0

      ---         MODULE    ---      ---       mac_task_ctrl
      00FF789AH   PUBLIC    CODE     ---       RxTask_AlwaysOn_Set
      00FF8728H   PUBLIC    CODE     ---       RxTask_RxTimer_Set
      00FF6A30H   PUBLIC    CODE     ---       RxTask_Timeout_Set
      00FF2EF0H   PUBLIC    CODE     ---       TxTask_Set
      00FF2153H   PUBLIC    CODE     ---       T2RTask_Set
      00FF793BH   PUBLIC    CODE     ---       TxRtcTask_Set
      00FF8868H   PUBLIC    CODE     ---       AllTask_Stop
      0000ACF7H   PUBLIC    EDATA    DWORD     gMac_Frame_Pending_Rx_Time
      0000ABD6H   PUBLIC    EDATA    BYTE      ?T2RTask_Set?BYTE

      00FF789AH   BLOCK     CODE     ---       LVL=0
      0000AC46H   SYMBOL    EDATA    ---       taskControl
      00FF789AH   LINE      CODE     ---       #21
      00FF789AH   LINE      CODE     ---       #22
      00FF789AH   LINE      CODE     ---       #26
      00FF78A0H   LINE      CODE     ---       #27
      00FF78A6H   LINE      CODE     ---       #28
      00FF78ACH   LINE      CODE     ---       #29
      00FF78B1H   LINE      CODE     ---       #30
      00FF78B7H   LINE      CODE     ---       #31
      00FF78BBH   LINE      CODE     ---       #32
      00FF78BFH   LINE      CODE     ---       #34
      00FF78C8H   LINE      CODE     ---       #36
      ---         BLOCKEND  ---      ---       LVL=0

      00FF8728H   BLOCK     CODE     ---       LVL=0
      DR8         REGSYM    ---      DWORD     ccaDuration
      00FF8728H   LINE      CODE     ---       #40
      00FF872AH   LINE      CODE     ---       #43
      00FF8735H   LINE      CODE     ---       #45
      ---         BLOCKEND  ---      ---       LVL=0

      00FF6A30H   BLOCK     CODE     ---       LVL=0
      DR28        REGSYM    ---      DWORD     rxOnTime
      00FF6A32H   BLOCK     CODE     NEAR LAB  LVL=1
      0000AC54H   SYMBOL    EDATA    ---       taskControl
      ---         BLOCKEND  ---      ---       LVL=1
      00FF6A30H   LINE      CODE     ---       #47
      00FF6A32H   LINE      CODE     ---       #48
      00FF6A32H   LINE      CODE     ---       #52
      00FF6A38H   LINE      CODE     ---       #53
      00FF6A3DH   LINE      CODE     ---       #54
      00FF6A43H   LINE      CODE     ---       #55
      00FF6A48H   LINE      CODE     ---       #56
      00FF6A6DH   LINE      CODE     ---       #57
      00FF6A73H   LINE      CODE     ---       #58
      00FF6A79H   LINE      CODE     ---       #60
      00FF6A82H   LINE      CODE     ---       #62
      ---         BLOCKEND  ---      ---       LVL=0

      00FF2EF0H   BLOCK     CODE     ---       LVL=0
      WR2         REGSYM    ---      WORD      pktInterval
      R5          REGSYM    ---      BYTE      continuous_task
      R15         REGSYM    ---      BYTE      mode
      0000ABF0H   SYMBOL    EDATA    DWORD     rtcAnchor
      00FF2EFEH   BLOCK     CODE     NEAR LAB  LVL=1
      0000ABF4H   SYMBOL    EDATA    ---       taskControl
      WR12        REGSYM    ---      WORD      pktIntervalTemp
      ---         BLOCKEND  ---      ---       LVL=1
      00FF2EF0H   LINE      CODE     ---       #66
      00FF2EFEH   LINE      CODE     ---       #67
L251 LINKER/LOCATER V4.66.93.0                                                        01/04/2022  17:06:11  PAGE 83


      00FF2EFEH   LINE      CODE     ---       #72
      00FF2F05H   LINE      CODE     ---       #74
      00FF2F26H   LINE      CODE     ---       #75
      00FF2F3FH   LINE      CODE     ---       #77
      00FF2F41H   LINE      CODE     ---       #79
      00FF2F45H   LINE      CODE     ---       #80
      00FF2F4AH   LINE      CODE     ---       #81
      00FF2F4EH   LINE      CODE     ---       #82
      00FF2F54H   LINE      CODE     ---       #83
      00FF2F5AH   LINE      CODE     ---       #84
      00FF2F5EH   LINE      CODE     ---       #85
      00FF2F62H   LINE      CODE     ---       #87
      00FF2F6BH   LINE      CODE     ---       #89
      00FF2F71H   LINE      CODE     ---       #90
      00FF2F76H   LINE      CODE     ---       #91
      00FF2F7AH   LINE      CODE     ---       #92
      00FF2F80H   LINE      CODE     ---       #93
      00FF2F86H   LINE      CODE     ---       #94
      00FF2F8AH   LINE      CODE     ---       #95
      00FF2F8FH   LINE      CODE     ---       #96
      00FF2F93H   LINE      CODE     ---       #98
      00FF2F9BH   LINE      CODE     ---       #100
      00FF2FA1H   LINE      CODE     ---       #101
      00FF2FA3H   LINE      CODE     ---       #105
      00FF2FA7H   LINE      CODE     ---       #106
      00FF2FACH   LINE      CODE     ---       #107
      00FF2FB0H   LINE      CODE     ---       #108
      00FF2FB4H   LINE      CODE     ---       #109
      00FF2FBAH   LINE      CODE     ---       #110
      00FF2FBEH   LINE      CODE     ---       #111
      00FF2FC3H   LINE      CODE     ---       #112
      00FF2FC7H   LINE      CODE     ---       #114
      00FF2FCFH   LINE      CODE     ---       #116
      00FF2FD8H   LINE      CODE     ---       #118
      00FF2FD8H   LINE      CODE     ---       #120
      00FF2FE0H   LINE      CODE     ---       #124
      ---         BLOCKEND  ---      ---       LVL=0

      00FF2153H   BLOCK     CODE     ---       LVL=0
      WR14        REGSYM    ---      WORD      interFrameSpace
      DR0         REGSYM    ---      DWORD     rxWaitDuration
      R12         REGSYM    ---      BYTE      bRtcAutoEn
      0000ABDDH   SYMBOL    EDATA    DWORD     rtcValue
      R13         REGSYM    ---      BYTE      bRxFramePending
      00FF215BH   BLOCK     CODE     NEAR LAB  LVL=1
      0000ABE2H   SYMBOL    EDATA    ---       taskControl
      ---         BLOCKEND  ---      ---       LVL=1
      00FF2153H   LINE      CODE     ---       #126
      00FF215BH   LINE      CODE     ---       #127
      00FF215BH   LINE      CODE     ---       #131
      00FF2161H   LINE      CODE     ---       #132
      00FF2166H   LINE      CODE     ---       #133
      00FF216CH   LINE      CODE     ---       #135
      00FF2170H   LINE      CODE     ---       #137
      00FF2191H   LINE      CODE     ---       #138
      00FF2193H   LINE      CODE     ---       #139
      00FF2195H   LINE      CODE     ---       #143
      00FF219BH   LINE      CODE     ---       #144
      00FF21A0H   LINE      CODE     ---       #145
      00FF21A0H   LINE      CODE     ---       #146
      00FF21A4H   LINE      CODE     ---       #147
      00FF21AAH   LINE      CODE     ---       #148
      00FF21B3H   LINE      CODE     ---       #151
      00FF21B7H   LINE      CODE     ---       #153
      00FF21BDH   LINE      CODE     ---       #154
L251 LINKER/LOCATER V4.66.93.0                                                        01/04/2022  17:06:11  PAGE 84


      00FF21C2H   LINE      CODE     ---       #155
      00FF21C8H   LINE      CODE     ---       #156
      00FF21CEH   LINE      CODE     ---       #157
      00FF21D3H   LINE      CODE     ---       #158
      00FF21DBH   LINE      CODE     ---       #159
      00FF21E1H   LINE      CODE     ---       #160
      00FF21EAH   LINE      CODE     ---       #161
      00FF21EAH   LINE      CODE     ---       #164
      00FF21EFH   LINE      CODE     ---       #165
      00FF21F3H   LINE      CODE     ---       #166
      00FF21F9H   LINE      CODE     ---       #167
      00FF21FFH   LINE      CODE     ---       #168
      00FF221EH   LINE      CODE     ---       #169
      00FF2235H   LINE      CODE     ---       #171
      00FF223BH   LINE      CODE     ---       #172
      00FF226EH   LINE      CODE     ---       #174
      00FF2274H   LINE      CODE     ---       #175
      00FF229BH   LINE      CODE     ---       #176
      00FF22A4H   LINE      CODE     ---       #177
      00FF22A9H   LINE      CODE     ---       #178
      00FF22ABH   LINE      CODE     ---       #181
      00FF22B1H   LINE      CODE     ---       #182
      00FF22B7H   LINE      CODE     ---       #183
      00FF22BEH   LINE      CODE     ---       #184
      00FF22C6H   LINE      CODE     ---       #185
      00FF22C6H   LINE      CODE     ---       #189
      ---         BLOCKEND  ---      ---       LVL=0

      00FF793BH   BLOCK     CODE     ---       LVL=0
      DR0         REGSYM    ---      DWORD     rtcValue
      00FF793DH   BLOCK     CODE     NEAR LAB  LVL=1
      0000AC62H   SYMBOL    EDATA    ---       taskControl
      ---         BLOCKEND  ---      ---       LVL=1
      00FF793BH   LINE      CODE     ---       #191
      00FF793DH   LINE      CODE     ---       #192
      00FF793DH   LINE      CODE     ---       #196
      00FF7943H   LINE      CODE     ---       #197
      00FF7948H   LINE      CODE     ---       #198
      00FF794CH   LINE      CODE     ---       #199
      00FF7950H   LINE      CODE     ---       #200
      00FF7956H   LINE      CODE     ---       #201
      00FF795AH   LINE      CODE     ---       #202
      00FF795EH   LINE      CODE     ---       #204
      00FF7967H   LINE      CODE     ---       #206
      ---         BLOCKEND  ---      ---       LVL=0

      00FF8868H   BLOCK     CODE     ---       LVL=0
      00FF8868H   LINE      CODE     ---       #218
      00FF8868H   LINE      CODE     ---       #221
      ---         BLOCKEND  ---      ---       LVL=0

      ---         MODULE    ---      ---       ruci_data_parse
      00FF6E04H   PUBLIC    CODE     ---       PciDataControlFieldParse
      00FF847BH   PUBLIC    CODE     ---       PciDataControlFieldPrint
      00FF2ABAH   PUBLIC    CODE     ---       MAC_TxControlfieldParse
      000000A8H.7 SFRSYM    DATA     BIT       EA
      00000080H   SFRSYM    DATA     BYTE      P0

      00FF6E04H   BLOCK     CODE     ---       LVL=0
      REG=7       REGSYM    ---      ---       pCmdAddress
      00FF6E08H   BLOCK     CODE     NEAR LAB  LVL=1
      R10         REGSYM    ---      BYTE      tmp
      ---         BLOCKEND  ---      ---       LVL=1
      00FF6E04H   LINE      CODE     ---       #23
      00FF6E08H   LINE      CODE     ---       #24
L251 LINKER/LOCATER V4.66.93.0                                                        01/04/2022  17:06:11  PAGE 85


      00FF6E08H   LINE      CODE     ---       #26
      00FF6E0FH   LINE      CODE     ---       #27
      00FF6E15H   LINE      CODE     ---       #28
      00FF6E19H   LINE      CODE     ---       #29
      00FF6E19H   LINE      CODE     ---       #30
      00FF6E23H   LINE      CODE     ---       #31
      00FF6E25H   LINE      CODE     ---       #33
      00FF6E2DH   LINE      CODE     ---       #35
      00FF6E30H   LINE      CODE     ---       #36
      00FF6E32H   LINE      CODE     ---       #38
      00FF6E3CH   LINE      CODE     ---       #39
      00FF6E44H   LINE      CODE     ---       #40
      00FF6E4BH   LINE      CODE     ---       #41
      00FF6E4BH   LINE      CODE     ---       #43
      00FF6E4CH   LINE      CODE     ---       #45
      ---         BLOCKEND  ---      ---       LVL=0

      00FF847BH   BLOCK     CODE     ---       LVL=0
      REG=1       REGSYM    ---      ---       pPayload
      WR4         REGSYM    ---      WORD      payloadLen
      00FF847DH   BLOCK     CODE     NEAR LAB  LVL=1
      WR6         REGSYM    ---      WORD      payloadIdx
      ---         BLOCKEND  ---      ---       LVL=1
      00FF847BH   LINE      CODE     ---       #47
      00FF847DH   LINE      CODE     ---       #48
      00FF847DH   LINE      CODE     ---       #50
      00FF8481H   LINE      CODE     ---       #51
      00FF8490H   LINE      CODE     ---       #52
      ---         BLOCKEND  ---      ---       LVL=0

      00FF2ABAH   BLOCK     CODE     ---       LVL=0
      00FF2ABCH   BLOCK     CODE     NEAR LAB  LVL=1
      R11         REGSYM    ---      BYTE      retValue
      0000ACCBH   SYMBOL    EDATA    ---       txControlField
      R15         REGSYM    ---      BYTE      rfStateTmp
      R7          REGSYM    ---      BYTE      tempValue
      R10         REGSYM    ---      BYTE      raaState
      ---         BLOCKEND  ---      ---       LVL=1
      00FF2ABAH   LINE      CODE     ---       #56
      00FF2ABCH   LINE      CODE     ---       #57
      00FF2ABCH   LINE      CODE     ---       #60
      00FF2ABCH   LINE      CODE     ---       #61
      00FF2ABCH   LINE      CODE     ---       #62
      00FF2ABCH   LINE      CODE     ---       #65
      00FF2AC6H   LINE      CODE     ---       #67
      00FF2AC8H   LINE      CODE     ---       #68
      00FF2ACEH   LINE      CODE     ---       #69
      00FF2ADFH   LINE      CODE     ---       #73
      00FF2AFAH   LINE      CODE     ---       #76
      00FF2B01H   LINE      CODE     ---       #77
      00FF2B04H   LINE      CODE     ---       #78
      00FF2B06H   LINE      CODE     ---       #79
      00FF2B06H   LINE      CODE     ---       #80
      00FF2B09H   LINE      CODE     ---       #81
      00FF2B09H   LINE      CODE     ---       #83
      00FF2B0CH   LINE      CODE     ---       #87
      00FF2B0FH   LINE      CODE     ---       #89
      00FF2B0FH   LINE      CODE     ---       #90
      00FF2B11H   LINE      CODE     ---       #140
      00FF2B16H   LINE      CODE     ---       #143
      00FF2B1DH   LINE      CODE     ---       #144
      00FF2B20H   LINE      CODE     ---       #145
      00FF2B20H   LINE      CODE     ---       #146
      00FF2B23H   LINE      CODE     ---       #147
      00FF2B23H   LINE      CODE     ---       #149
L251 LINKER/LOCATER V4.66.93.0                                                        01/04/2022  17:06:11  PAGE 86


      00FF2B28H   LINE      CODE     ---       #151
      00FF2B2EH   LINE      CODE     ---       #153
      00FF2B38H   LINE      CODE     ---       #155
      00FF2B3FH   LINE      CODE     ---       #156
      00FF2B42H   LINE      CODE     ---       #157
      00FF2B42H   LINE      CODE     ---       #158
      00FF2B44H   LINE      CODE     ---       #159
      00FF2B44H   LINE      CODE     ---       #160
      00FF2B49H   LINE      CODE     ---       #162
      00FF2B50H   LINE      CODE     ---       #164
      00FF2B53H   LINE      CODE     ---       #165
      00FF2B53H   LINE      CODE     ---       #166
      00FF2B55H   LINE      CODE     ---       #167
      00FF2B55H   LINE      CODE     ---       #170
      00FF2B58H   LINE      CODE     ---       #171
      00FF2B58H   LINE      CODE     ---       #174
      00FF2B66H   LINE      CODE     ---       #175
      00FF2B68H   LINE      CODE     ---       #177
      00FF2B6BH   LINE      CODE     ---       #178
      00FF2B6BH   LINE      CODE     ---       #179
      00FF2B6DH   LINE      CODE     ---       #180
      00FF2B6DH   LINE      CODE     ---       #189
      00FF2B71H   LINE      CODE     ---       #190
      00FF2B79H   LINE      CODE     ---       #191
      00FF2B7DH   LINE      CODE     ---       #193
      00FF2B84H   LINE      CODE     ---       #196
      00FF2B8DH   LINE      CODE     ---       #198
      00FF2B90H   LINE      CODE     ---       #199
      00FF2B90H   LINE      CODE     ---       #200
      00FF2B92H   LINE      CODE     ---       #201
      00FF2B92H   LINE      CODE     ---       #205
      00FF2B95H   LINE      CODE     ---       #206
      00FF2B9EH   LINE      CODE     ---       #207
      00FF2BA0H   LINE      CODE     ---       #208
      00FF2BA0H   LINE      CODE     ---       #210
      00FF2BA5H   LINE      CODE     ---       #212
      00FF2BACH   LINE      CODE     ---       #214
      00FF2BAFH   LINE      CODE     ---       #215
      00FF2BB2H   LINE      CODE     ---       #216
      00FF2BB4H   LINE      CODE     ---       #217
      00FF2BB4H   LINE      CODE     ---       #220
      00FF2BB7H   LINE      CODE     ---       #221
      00FF2BBAH   LINE      CODE     ---       #223
      00FF2BC0H   LINE      CODE     ---       #226
      00FF2BC8H   LINE      CODE     ---       #229
      00FF2BCBH   LINE      CODE     ---       #230
      00FF2BCBH   LINE      CODE     ---       #232
      ---         BLOCKEND  ---      ---       LVL=0

      ---         MODULE    ---      ---       mac_event_gen
      00FF6679H   PUBLIC    CODE     ---       PciCnfEventSendtoMsgQueue
      00FF5EA4H   PUBLIC    CODE     ---       PciGetRegEventSendtoMsgQueue
      00FF64E9H   PUBLIC    CODE     ---       PciGetCrcEventSendtoMsgQueue
      00FF4699H   PUBLIC    CODE     ---       PciGetPhyStatusEventSendtoMsgQueue
      00FF537EH   PUBLIC    CODE     ---       PciGetRssiEventSendtoMsgQueue
      00FF6CCFH   PUBLIC    CODE     ---       PciBurstTxdoneEventSendtoMsgQueue

      00FF6679H   BLOCK     CODE     ---       LVL=0
      R13         REGSYM    ---      BYTE      cmdHeader
      R14         REGSYM    ---      BYTE      cmdSubheader
      R15         REGSYM    ---      BYTE      cmdCnfStatus
      00FF6681H   BLOCK     CODE     NEAR LAB  LVL=1
      REG=3       REGSYM    ---      ---       pEventPayload
      R12         REGSYM    ---      BYTE      qIdx
      ---         BLOCKEND  ---      ---       LVL=1
L251 LINKER/LOCATER V4.66.93.0                                                        01/04/2022  17:06:11  PAGE 87


      00FF6679H   LINE      CODE     ---       #55
      00FF6681H   LINE      CODE     ---       #56
      00FF6681H   LINE      CODE     ---       #60
      00FF6686H   LINE      CODE     ---       #61
      00FF6689H   LINE      CODE     ---       #63
      00FF6693H   LINE      CODE     ---       #64
      00FF669AH   LINE      CODE     ---       #65
      00FF66A0H   LINE      CODE     ---       #66
      00FF66A6H   LINE      CODE     ---       #67
      00FF66AAH   LINE      CODE     ---       #68
      00FF66AEH   LINE      CODE     ---       #69
      00FF66B2H   LINE      CODE     ---       #71
      00FF66CBH   LINE      CODE     ---       #73
      00FF66D8H   LINE      CODE     ---       #86
      ---         BLOCKEND  ---      ---       LVL=0

      00FF5EA4H   BLOCK     CODE     ---       LVL=0
      REG=7       REGSYM    ---      ---       pCmdCnfStatus
      00FF5EA8H   BLOCK     CODE     NEAR LAB  LVL=1
      REG=6       REGSYM    ---      ---       pEventPayload
      0000ACE1H   SYMBOL    EDATA    DWORD     regValue
      0000ACE5H   SYMBOL    EDATA    BYTE      qIdx
      ---         BLOCKEND  ---      ---       LVL=1
      00FF5EA4H   LINE      CODE     ---       #88
      00FF5EA8H   LINE      CODE     ---       #89
      00FF5EA8H   LINE      CODE     ---       #92
      00FF5EAFH   LINE      CODE     ---       #93
      00FF5EB4H   LINE      CODE     ---       #95
      00FF5EC1H   LINE      CODE     ---       #97
      00FF5ECBH   LINE      CODE     ---       #98
      00FF5ED2H   LINE      CODE     ---       #99
      00FF5ED8H   LINE      CODE     ---       #100
      00FF5EDEH   LINE      CODE     ---       #101
      00FF5EEAH   LINE      CODE     ---       #103
      00FF5F03H   LINE      CODE     ---       #104
      00FF5F12H   LINE      CODE     ---       #106
      ---         BLOCKEND  ---      ---       LVL=0

      00FF64E9H   BLOCK     CODE     ---       LVL=0
      00FF64EDH   BLOCK     CODE     NEAR LAB  LVL=1
      REG=6       REGSYM    ---      ---       pEventPayload
      R15         REGSYM    ---      BYTE      qIdx
      ---         BLOCKEND  ---      ---       LVL=1
      00FF64E9H   LINE      CODE     ---       #108
      00FF64EDH   LINE      CODE     ---       #109
      00FF64EDH   LINE      CODE     ---       #111
      00FF64F2H   LINE      CODE     ---       #112
      00FF64F7H   LINE      CODE     ---       #114
      00FF6501H   LINE      CODE     ---       #115
      00FF6508H   LINE      CODE     ---       #116
      00FF650EH   LINE      CODE     ---       #117
      00FF6514H   LINE      CODE     ---       #119
      00FF6521H   LINE      CODE     ---       #125
      00FF653CH   LINE      CODE     ---       #127
      00FF6549H   LINE      CODE     ---       #129
      ---         BLOCKEND  ---      ---       LVL=0

      00FF4699H   BLOCK     CODE     ---       LVL=0
      00FF469DH   BLOCK     CODE     NEAR LAB  LVL=1
      REG=6       REGSYM    ---      ---       pEventPayload
      R7          REGSYM    ---      BYTE      cpmputeRssi
      R15         REGSYM    ---      BYTE      qIdx
      ---         BLOCKEND  ---      ---       LVL=1
      00FF4699H   LINE      CODE     ---       #131
      00FF469DH   LINE      CODE     ---       #132
L251 LINKER/LOCATER V4.66.93.0                                                        01/04/2022  17:06:11  PAGE 88


      00FF469DH   LINE      CODE     ---       #134
      00FF469DH   LINE      CODE     ---       #135
      00FF46A2H   LINE      CODE     ---       #136
      00FF46A7H   LINE      CODE     ---       #138
      00FF46B1H   LINE      CODE     ---       #139
      00FF46B8H   LINE      CODE     ---       #140
      00FF46BEH   LINE      CODE     ---       #141
      00FF46C2H   LINE      CODE     ---       #142
      00FF46CAH   LINE      CODE     ---       #143
      00FF46D2H   LINE      CODE     ---       #144
      00FF46DCH   LINE      CODE     ---       #145
      00FF46E7H   LINE      CODE     ---       #146
      00FF46F1H   LINE      CODE     ---       #147
      00FF46F9H   LINE      CODE     ---       #148
      00FF470CH   LINE      CODE     ---       #150
      00FF4710H   LINE      CODE     ---       #152
      00FF472BH   LINE      CODE     ---       #154
      00FF4738H   LINE      CODE     ---       #156
      ---         BLOCKEND  ---      ---       LVL=0

      00FF537EH   BLOCK     CODE     ---       LVL=0
      00FF5382H   BLOCK     CODE     NEAR LAB  LVL=1
      REG=6       REGSYM    ---      ---       pEventPayload
      R5          REGSYM    ---      CHAR      ibRssi
      R10         REGSYM    ---      BYTE      cpmputeRssi
      R4          REGSYM    ---      BYTE      lnaGain
      R7          REGSYM    ---      BYTE      tiaGain
      R6          REGSYM    ---      BYTE      vgaGain
      R15         REGSYM    ---      BYTE      qIdx
      ---         BLOCKEND  ---      ---       LVL=1
      00FF537EH   LINE      CODE     ---       #158
      00FF5382H   LINE      CODE     ---       #159
      00FF5382H   LINE      CODE     ---       #163
      00FF5387H   LINE      CODE     ---       #164
      00FF538CH   LINE      CODE     ---       #166
      00FF5393H   LINE      CODE     ---       #167
      00FF539FH   LINE      CODE     ---       #168
      00FF53A7H   LINE      CODE     ---       #169
      00FF53B1H   LINE      CODE     ---       #170
      00FF53B8H   LINE      CODE     ---       #172
      00FF53C2H   LINE      CODE     ---       #173
      00FF53C9H   LINE      CODE     ---       #174
      00FF53CFH   LINE      CODE     ---       #175
      00FF53D5H   LINE      CODE     ---       #176
      00FF53D9H   LINE      CODE     ---       #178
      00FF53F4H   LINE      CODE     ---       #180
      00FF5401H   LINE      CODE     ---       #182
      ---         BLOCKEND  ---      ---       LVL=0

      00FF6CCFH   BLOCK     CODE     ---       LVL=0
      00FF6CD1H   BLOCK     CODE     NEAR LAB  LVL=1
      REG=3       REGSYM    ---      ---       pEventPayload
      R15         REGSYM    ---      BYTE      qIdx
      ---         BLOCKEND  ---      ---       LVL=1
      00FF6CCFH   LINE      CODE     ---       #184
      00FF6CD1H   LINE      CODE     ---       #185
      00FF6CD1H   LINE      CODE     ---       #187
      00FF6CD6H   LINE      CODE     ---       #188
      00FF6CD9H   LINE      CODE     ---       #190
      00FF6CE3H   LINE      CODE     ---       #191
      00FF6CEAH   LINE      CODE     ---       #192
      00FF6CF0H   LINE      CODE     ---       #193
      00FF6CF5H   LINE      CODE     ---       #194
      00FF6D0EH   LINE      CODE     ---       #196
      00FF6D1BH   LINE      CODE     ---       #198
L251 LINKER/LOCATER V4.66.93.0                                                        01/04/2022  17:06:11  PAGE 89


      ---         BLOCKEND  ---      ---       LVL=0

      ---         MODULE    ---      ---       mac_RaaSchedule
      00FF22C9H   PUBLIC    CODE     ---       Mac_RaaRxDoneHandle?_
      00FF8608H   PUBLIC    CODE     ---       Mac_RaaClearAckQandGenRxData
      00FF1A99H   PUBLIC    CODE     ---       MAC_RaaSchedule
      00FF4000H   PUBLIC    CODE     ---       MAC_RxDoneEventGen?_
      00FF8354H   PUBLIC    CODE     ---       mac_genAck
      00FF6BDDH   PUBLIC    CODE     ---       MAC_AckSet
      00FF1039H   PUBLIC    CODE     ---       mac_Filter?_
      0000AC36H   PUBLIC    EDATA    INT       gMacRaaState
      0000AC38H   PUBLIC    EDATA    ---       gMacPib
      00000080H   SFRSYM    DATA     BYTE      P0

      00FF4000H   BLOCK     CODE     ---       LVL=0
      R10         REGSYM    ---      BYTE      isCrcPass
      00FF4006H   BLOCK     CODE     NEAR LAB  LVL=1
      R11         REGSYM    ---      BYTE      retValue
      FFFFFFFAH   STKSYM    ---      ---       sRxControlField
      ---         BLOCKEND  ---      ---       LVL=1
      00FF4000H   LINE      CODE     ---       #99
      00FF4006H   LINE      CODE     ---       #100
      00FF4006H   LINE      CODE     ---       #105
      00FF4012H   LINE      CODE     ---       #106
      00FF401AH   LINE      CODE     ---       #107
      00FF4020H   LINE      CODE     ---       #108
      00FF403CH   LINE      CODE     ---       #109
      00FF404BH   LINE      CODE     ---       #114
      00FF4053H   LINE      CODE     ---       #126
      00FF4079H   LINE      CODE     ---       #127
      00FF4083H   LINE      CODE     ---       #128
      00FF4083H   LINE      CODE     ---       #129
      00FF40A2H   LINE      CODE     ---       #132
      00FF40B1H   LINE      CODE     ---       #134
      00FF40B9H   LINE      CODE     ---       #141
      00FF40BBH   LINE      CODE     ---       #143
      00FF40BEH   LINE      CODE     ---       #144
      00FF40BEH   LINE      CODE     ---       #148
      00FF40BEH   LINE      CODE     ---       #150
      00FF40BEH   LINE      CODE     ---       #151
      ---         BLOCKEND  ---      ---       LVL=0

      00FF8354H   BLOCK     CODE     ---       LVL=0
      REG=1       REGSYM    ---      ---       pbuf
      R11         REGSYM    ---      BYTE      framePending
      R10         REGSYM    ---      BYTE      dsn
      00FF8358H   BLOCK     CODE     NEAR LAB  LVL=1
      WR0         REGSYM    ---      WORD      fcf
      ---         BLOCKEND  ---      ---       LVL=1
      00FF8354H   LINE      CODE     ---       #153
      00FF8358H   LINE      CODE     ---       #154
      00FF8358H   LINE      CODE     ---       #155
      00FF8364H   LINE      CODE     ---       #157
      00FF8367H   LINE      CODE     ---       #158
      00FF836BH   LINE      CODE     ---       #159
      ---         BLOCKEND  ---      ---       LVL=0

      00FF6BDDH   BLOCK     CODE     ---       LVL=0
      0000AD22H   SYMBOL    EDATA    ---       ackPayload
      R11         REGSYM    ---      BYTE      retValue
      00FF6BDDH   LINE      CODE     ---       #161
      00FF6BDDH   LINE      CODE     ---       #162
      00FF6BDDH   LINE      CODE     ---       #164
      00FF6BDDH   LINE      CODE     ---       #165
      00FF6BDDH   LINE      CODE     ---       #168
L251 LINKER/LOCATER V4.66.93.0                                                        01/04/2022  17:06:11  PAGE 90


      00FF6BE4H   LINE      CODE     ---       #170
      00FF6BEBH   LINE      CODE     ---       #172
      00FF6BEEH   LINE      CODE     ---       #175
      00FF6BFDH   LINE      CODE     ---       #178
      00FF6C05H   LINE      CODE     ---       #181
      00FF6C1DH   LINE      CODE     ---       #182
      00FF6C27H   LINE      CODE     ---       #183
      00FF6C29H   LINE      CODE     ---       #184
      00FF6C2DH   LINE      CODE     ---       #185
      00FF6C2DH   LINE      CODE     ---       #186
      00FF6C2DH   LINE      CODE     ---       #187
      ---         BLOCKEND  ---      ---       LVL=0

      00FF1039H   BLOCK     CODE     ---       LVL=0
      00FF103DH   BLOCK     CODE     NEAR LAB  LVL=1
      00000000H   STKSYM    ---      BYTE      frameType
      ---         BLOCKEND  ---      ---       LVL=1
      00FF1039H   LINE      CODE     ---       #193
      00FF103DH   LINE      CODE     ---       #194
      00FF103DH   LINE      CODE     ---       #195
      00FF103DH   LINE      CODE     ---       #197
      00FF1044H   LINE      CODE     ---       #200
      00FF104DH   LINE      CODE     ---       #201
      00FF1057H   LINE      CODE     ---       #202
      00FF1064H   LINE      CODE     ---       #205
      00FF106FH   LINE      CODE     ---       #207
      00FF107FH   LINE      CODE     ---       #209
      00FF1082H   LINE      CODE     ---       #211
      00FF108CH   LINE      CODE     ---       #212
      00FF1090H   LINE      CODE     ---       #213
      00FF1090H   LINE      CODE     ---       #214
      00FF1090H   LINE      CODE     ---       #216
      00FF1092H   LINE      CODE     ---       #217
      00FF1092H   LINE      CODE     ---       #220
      00FF1097H   LINE      CODE     ---       #222
      00FF10ADH   LINE      CODE     ---       #224
      00FF10B0H   LINE      CODE     ---       #226
      00FF10BAH   LINE      CODE     ---       #227
      00FF10C2H   LINE      CODE     ---       #228
      00FF10C6H   LINE      CODE     ---       #229
      00FF10C8H   LINE      CODE     ---       #230
      00FF10CBH   LINE      CODE     ---       #231
      00FF10CBH   LINE      CODE     ---       #234
      00FF10D3H   LINE      CODE     ---       #236
      00FF1104H   LINE      CODE     ---       #241
      00FF1107H   LINE      CODE     ---       #242
      00FF1115H   LINE      CODE     ---       #243
      00FF1125H   LINE      CODE     ---       #244
      00FF113DH   LINE      CODE     ---       #245
      00FF114BH   LINE      CODE     ---       #246
      00FF1159H   LINE      CODE     ---       #247
      00FF1169H   LINE      CODE     ---       #248
      00FF1181H   LINE      CODE     ---       #249
      00FF118FH   LINE      CODE     ---       #251
      00FF1199H   LINE      CODE     ---       #252
      00FF11A5H   LINE      CODE     ---       #253
      00FF11B9H   LINE      CODE     ---       #254
      00FF11C3H   LINE      CODE     ---       #255
      00FF11CBH   LINE      CODE     ---       #256
      00FF11D7H   LINE      CODE     ---       #257
      00FF11E7H   LINE      CODE     ---       #258
      00FF11EBH   LINE      CODE     ---       #259
      00FF11EEH   LINE      CODE     ---       #260
      00FF11EEH   LINE      CODE     ---       #264
      00FF11F1H   LINE      CODE     ---       #265
L251 LINKER/LOCATER V4.66.93.0                                                        01/04/2022  17:06:11  PAGE 91


      00FF11F1H   LINE      CODE     ---       #266
      00FF11FBH   LINE      CODE     ---       #268
      00FF11FFH   LINE      CODE     ---       #269
      00FF1202H   LINE      CODE     ---       #270
      00FF1202H   LINE      CODE     ---       #274
      00FF1208H   LINE      CODE     ---       #277
      00FF120CH   LINE      CODE     ---       #278
      00FF1210H   LINE      CODE     ---       #279
      00FF1216H   LINE      CODE     ---       #280
      00FF121AH   LINE      CODE     ---       #284
      00FF1225H   LINE      CODE     ---       #285
      00FF1235H   LINE      CODE     ---       #287
      00FF1238H   LINE      CODE     ---       #288
      00FF1242H   LINE      CODE     ---       #289
      00FF124AH   LINE      CODE     ---       #290
      00FF124EH   LINE      CODE     ---       #291
      00FF1252H   LINE      CODE     ---       #292
      00FF1255H   LINE      CODE     ---       #293
      00FF1258H   LINE      CODE     ---       #294
      00FF125BH   LINE      CODE     ---       #295
      00FF125BH   LINE      CODE     ---       #297
      00FF125BH   LINE      CODE     ---       #299
      00FF125DH   LINE      CODE     ---       #300
      ---         BLOCKEND  ---      ---       LVL=0

      00FF22C9H   BLOCK     CODE     ---       LVL=0
      00FF22CBH   BLOCK     CODE     NEAR LAB  LVL=1
      R10         REGSYM    ---      BYTE      macRxInfo
      R15         REGSYM    ---      BYTE      isCrcPass
      ---         BLOCKEND  ---      ---       LVL=1
      00FF22C9H   LINE      CODE     ---       #371
      00FF22CBH   LINE      CODE     ---       #372
      00FF22CBH   LINE      CODE     ---       #373
      00FF22CBH   LINE      CODE     ---       #374
      00FF22CBH   LINE      CODE     ---       #376
      00FF22CEH   LINE      CODE     ---       #377
      00FF22D1H   LINE      CODE     ---       #379
      00FF22DDH   LINE      CODE     ---       #380
      00FF22E1H   LINE      CODE     ---       #381
      00FF22E4H   LINE      CODE     ---       #382
      00FF22E4H   LINE      CODE     ---       #387
      00FF22EBH   LINE      CODE     ---       #389
      00FF2302H   LINE      CODE     ---       #390
      00FF2306H   LINE      CODE     ---       #391
      00FF2309H   LINE      CODE     ---       #392
      00FF2309H   LINE      CODE     ---       #394
      00FF2316H   LINE      CODE     ---       #396
      00FF231FH   LINE      CODE     ---       #397
      00FF2323H   LINE      CODE     ---       #398
      00FF2326H   LINE      CODE     ---       #400
      00FF2342H   LINE      CODE     ---       #402
      00FF234AH   LINE      CODE     ---       #403
      00FF234DH   LINE      CODE     ---       #406
      00FF2357H   LINE      CODE     ---       #408
      00FF235BH   LINE      CODE     ---       #409
      00FF235EH   LINE      CODE     ---       #411
      00FF2362H   LINE      CODE     ---       #412
      00FF2365H   LINE      CODE     ---       #413
      00FF2365H   LINE      CODE     ---       #415
      00FF236CH   LINE      CODE     ---       #426
      00FF2372H   LINE      CODE     ---       #430
      00FF237CH   LINE      CODE     ---       #432
      00FF2380H   LINE      CODE     ---       #433
      00FF2383H   LINE      CODE     ---       #435
      00FF2387H   LINE      CODE     ---       #436
L251 LINKER/LOCATER V4.66.93.0                                                        01/04/2022  17:06:11  PAGE 92


      00FF238AH   LINE      CODE     ---       #439
      00FF2392H   LINE      CODE     ---       #441
      00FF2395H   LINE      CODE     ---       #442
      00FF239BH   LINE      CODE     ---       #444
      00FF239EH   LINE      CODE     ---       #446
      00FF23ACH   LINE      CODE     ---       #448
      00FF23AFH   LINE      CODE     ---       #451
      00FF23B2H   LINE      CODE     ---       #454
      00FF23BBH   LINE      CODE     ---       #468
      00FF23C2H   LINE      CODE     ---       #470
      00FF23C5H   LINE      CODE     ---       #472
      00FF23C9H   LINE      CODE     ---       #473
      00FF23C9H   LINE      CODE     ---       #476
      00FF23CCH   LINE      CODE     ---       #478
      00FF23CFH   LINE      CODE     ---       #481
      00FF23D5H   LINE      CODE     ---       #484
      00FF23DFH   LINE      CODE     ---       #486
      00FF23E3H   LINE      CODE     ---       #487
      00FF23E5H   LINE      CODE     ---       #489
      00FF23E9H   LINE      CODE     ---       #491
      00FF23E9H   LINE      CODE     ---       #492
      00FF23EBH   LINE      CODE     ---       #495
      00FF23EEH   LINE      CODE     ---       #497
      00FF23F1H   LINE      CODE     ---       #500
      00FF23F9H   LINE      CODE     ---       #501
      00FF23FCH   LINE      CODE     ---       #504
      00FF2406H   LINE      CODE     ---       #506
      00FF240AH   LINE      CODE     ---       #507
      00FF240CH   LINE      CODE     ---       #509
      00FF2410H   LINE      CODE     ---       #511
      00FF2410H   LINE      CODE     ---       #512
      00FF2412H   LINE      CODE     ---       #515
      00FF2415H   LINE      CODE     ---       #523
      00FF2418H   LINE      CODE     ---       #526
      00FF2420H   LINE      CODE     ---       #527
      00FF2423H   LINE      CODE     ---       #530
      00FF242DH   LINE      CODE     ---       #532
      00FF2431H   LINE      CODE     ---       #533
      00FF2433H   LINE      CODE     ---       #535
      00FF243AH   LINE      CODE     ---       #536
      00FF243AH   LINE      CODE     ---       #537
      00FF243AH   LINE      CODE     ---       #539
      00FF243BH   LINE      CODE     ---       #540
      ---         BLOCKEND  ---      ---       LVL=0

      00FF8608H   BLOCK     CODE     ---       LVL=0
      00FF8608H   LINE      CODE     ---       #542
      00FF8608H   LINE      CODE     ---       #545
      00FF8613H   LINE      CODE     ---       #548
      ---         BLOCKEND  ---      ---       LVL=0

      00FF1A99H   BLOCK     CODE     ---       LVL=0
      00FF1A9BH   BLOCK     CODE     NEAR LAB  LVL=1
      WR14        REGSYM    ---      WORD      macFunEventQueue
      ---         BLOCKEND  ---      ---       LVL=1
      00FF1A99H   LINE      CODE     ---       #873
      00FF1A9BH   LINE      CODE     ---       #874
      00FF1A9BH   LINE      CODE     ---       #875
      00FF1A9BH   LINE      CODE     ---       #878
      00FF1AA7H   LINE      CODE     ---       #880
      00FF1AA7H   LINE      CODE     ---       #881
      00FF1AA7H   LINE      CODE     ---       #886
      00FF1AD0H   LINE      CODE     ---       #888
      00FF1AD0H   LINE      CODE     ---       #889
      00FF1AD3H   LINE      CODE     ---       #890
L251 LINKER/LOCATER V4.66.93.0                                                        01/04/2022  17:06:11  PAGE 93


      00FF1AD6H   LINE      CODE     ---       #891
      00FF1AD9H   LINE      CODE     ---       #892
      00FF1ADCH   LINE      CODE     ---       #922
      00FF1AE4H   LINE      CODE     ---       #924
      00FF1AE7H   LINE      CODE     ---       #925
      00FF1AE9H   LINE      CODE     ---       #926
      00FF1AEDH   LINE      CODE     ---       #927
      00FF1AEDH   LINE      CODE     ---       #929
      00FF1AF7H   LINE      CODE     ---       #931
      00FF1AFAH   LINE      CODE     ---       #932
      00FF1AFDH   LINE      CODE     ---       #943
      00FF1AFDH   LINE      CODE     ---       #954
      00FF1B03H   LINE      CODE     ---       #958
      00FF1B13H   LINE      CODE     ---       #960
      00FF1B16H   LINE      CODE     ---       #961
      00FF1B18H   LINE      CODE     ---       #964
      00FF1B1BH   LINE      CODE     ---       #965
      00FF1B1BH   LINE      CODE     ---       #967
      00FF1B27H   LINE      CODE     ---       #969
      00FF1B2AH   LINE      CODE     ---       #971
      00FF1B2EH   LINE      CODE     ---       #973
      00FF1B31H   LINE      CODE     ---       #974
      00FF1B31H   LINE      CODE     ---       #975
      00FF1B36H   LINE      CODE     ---       #989
      00FF1B3CH   LINE      CODE     ---       #991
      00FF1B3FH   LINE      CODE     ---       #994
      00FF1B46H   LINE      CODE     ---       #996
      00FF1B4FH   LINE      CODE     ---       #998
      00FF1B4FH   LINE      CODE     ---       #1003
      00FF1B58H   LINE      CODE     ---       #1005
      00FF1B58H   LINE      CODE     ---       #1016
      00FF1B5CH   LINE      CODE     ---       #1017
      00FF1B5FH   LINE      CODE     ---       #1019
      00FF1B65H   LINE      CODE     ---       #1021
      00FF1B68H   LINE      CODE     ---       #1022
      00FF1B72H   LINE      CODE     ---       #1024
      00FF1B75H   LINE      CODE     ---       #1025
      00FF1B78H   LINE      CODE     ---       #1026
      00FF1B78H   LINE      CODE     ---       #1027
      00FF1B80H   LINE      CODE     ---       #1028
      00FF1B89H   LINE      CODE     ---       #1029
      00FF1B8CH   LINE      CODE     ---       #1031
      00FF1BA7H   LINE      CODE     ---       #1032
      00FF1BACH   LINE      CODE     ---       #1033
      00FF1BB4H   LINE      CODE     ---       #1034
      00FF1BB7H   LINE      CODE     ---       #1035
      00FF1BB7H   LINE      CODE     ---       #1057
      00FF1BBAH   LINE      CODE     ---       #1058
      00FF1BBAH   LINE      CODE     ---       #1059
      00FF1BBFH   LINE      CODE     ---       #1060
      00FF1BD3H   LINE      CODE     ---       #1062
      00FF1BD3H   LINE      CODE     ---       #1064
      00FF1BDAH   LINE      CODE     ---       #1069
      00FF1BDEH   LINE      CODE     ---       #1070
      00FF1BE0H   LINE      CODE     ---       #1071
      00FF1BE0H   LINE      CODE     ---       #1073
      00FF1BE7H   LINE      CODE     ---       #1078
      00FF1BEBH   LINE      CODE     ---       #1079
      00FF1BEDH   LINE      CODE     ---       #1080
      00FF1BEDH   LINE      CODE     ---       #1081
      00FF1BF1H   LINE      CODE     ---       #1082
      00FF1BF3H   LINE      CODE     ---       #1083
      00FF1BF3H   LINE      CODE     ---       #1084
      00FF1BFBH   LINE      CODE     ---       #1085
      00FF1BFDH   LINE      CODE     ---       #1086
L251 LINKER/LOCATER V4.66.93.0                                                        01/04/2022  17:06:11  PAGE 94


      00FF1BFDH   LINE      CODE     ---       #1087
      00FF1C02H   LINE      CODE     ---       #1088
      00FF1C02H   LINE      CODE     ---       #1089
      00FF1C02H   LINE      CODE     ---       #1090
      00FF1C0EH   LINE      CODE     ---       #1091
      00FF1C10H   LINE      CODE     ---       #1092
      00FF1C10H   LINE      CODE     ---       #1093
      00FF1C15H   LINE      CODE     ---       #1094
      00FF1C1BH   LINE      CODE     ---       #1096
      00FF1C1EH   LINE      CODE     ---       #1097
      00FF1C21H   LINE      CODE     ---       #1099
      00FF1C24H   LINE      CODE     ---       #1101
      00FF1C2EH   LINE      CODE     ---       #1103
      00FF1C36H   LINE      CODE     ---       #1105
      00FF1C3AH   LINE      CODE     ---       #1111
      00FF1C3CH   LINE      CODE     ---       #1113
      00FF1C44H   LINE      CODE     ---       #1114
      00FF1C44H   LINE      CODE     ---       #1115
      00FF1C46H   LINE      CODE     ---       #1140
      00FF1C46H   LINE      CODE     ---       #1141
      00FF1C49H   LINE      CODE     ---       #1142
      00FF1C4CH   LINE      CODE     ---       #1145
      00FF1C4FH   LINE      CODE     ---       #1152
      00FF1C55H   LINE      CODE     ---       #1155
      00FF1C5CH   LINE      CODE     ---       #1163
      00FF1C61H   LINE      CODE     ---       #1166
      00FF1C61H   LINE      CODE     ---       #1168
      00FF1C61H   LINE      CODE     ---       #1169
      ---         BLOCKEND  ---      ---       LVL=0

      ---         MODULE    ---      ---       mac_TarSchedule
      00FF000EH   PUBLIC    CODE     ---       MAC_TarSchedule
      00FF861AH   PUBLIC    CODE     ---       MAC_TarParInit
      00FF7748H   PUBLIC    CODE     ---       MAC_BackoffTimeCal
      00FF8383H   PUBLIC    CODE     ---       MAC_AckFrameCheck
      00FF5A04H   PUBLIC    CODE     ---       MAC_TxDoneEventGen
      00FF7B2FH   PUBLIC    CODE     ---       MAC_TxTaskSet
      00FF63B4H   PUBLIC    CODE     ---       MAC_TxHwSet
      00FF6062H   PUBLIC    CODE     ---       MAC_SecLbHwSet
      00FF8491H   PUBLIC    CODE     ---       MAC_TxStart
      00FF568FH   PUBLIC    CODE     ---       MAC_RxHwSet
      00FF8691H   PUBLIC    CODE     ---       MAC_WaitforRxTaskReady
      00FF6B8AH   PUBLIC    CODE     ---       MAC_CcaStart
      00FF588CH   PUBLIC    CODE     ---       MAC_CcaStatusGet
      00FF8818H   PUBLIC    CODE     ---       MAC_MhrParse
      0000A000H   PUBLIC    EDATA    INT       gMacTarState
      0000A002H   PUBLIC    EDATA    ---       gMacTxPar
      0000A018H   PUBLIC    EDATA    ---       gMacRxPar
      0000A02AH   PUBLIC    EDATA    ---       gMacHdr
      0000A04DH   PUBLIC    EDATA    ---       gMacBuf
      0000A885H   PUBLIC    EDATA    ---       gPhyStatus
      0000A88AH   PUBLIC    EDATA    BYTE      gRetransmissionCount
      0000A88BH   PUBLIC    EDATA    BYTE      gCsmacaRetry
      0000A88CH   PUBLIC    EDATA    BYTE      gBackoffExpIdx
      000000A8H.7 SFRSYM    DATA     BIT       EA
      00000080H   SFRSYM    DATA     BYTE      P0

      00FF7748H   BLOCK     CODE     ---       LVL=0
      REG=7       REGSYM    ---      ---       backoffDuration
      00FF774CH   BLOCK     CODE     NEAR LAB  LVL=1
      0000AD3BH   SYMBOL    EDATA    BYTE      randValue
      R7          REGSYM    ---      BYTE      backoffExp
      ---         BLOCKEND  ---      ---       LVL=1
      00FF7748H   LINE      CODE     ---       #66
      00FF774CH   LINE      CODE     ---       #67
L251 LINKER/LOCATER V4.66.93.0                                                        01/04/2022  17:06:11  PAGE 95


      00FF774CH   LINE      CODE     ---       #69
      00FF774CH   LINE      CODE     ---       #70
      00FF7757H   LINE      CODE     ---       #71
      00FF776CH   LINE      CODE     ---       #72
      00FF777EH   LINE      CODE     ---       #73
      ---         BLOCKEND  ---      ---       LVL=0

      00FF8383H   BLOCK     CODE     ---       LVL=0
      R10         REGSYM    ---      BYTE      dsn
      00FF8385H   BLOCK     CODE     NEAR LAB  LVL=1
      R7          REGSYM    ---      BYTE      retValue
      ---         BLOCKEND  ---      ---       LVL=1
      00FF8383H   LINE      CODE     ---       #78
      00FF8385H   LINE      CODE     ---       #79
      00FF8385H   LINE      CODE     ---       #80
      00FF8387H   LINE      CODE     ---       #81
      00FF838EH   LINE      CODE     ---       #82
      00FF8394H   LINE      CODE     ---       #83
      00FF8397H   LINE      CODE     ---       #84
      00FF8399H   LINE      CODE     ---       #85
      ---         BLOCKEND  ---      ---       LVL=0

      00FF5A04H   BLOCK     CODE     ---       LVL=0
      R15         REGSYM    ---      BYTE      txState
      R7          REGSYM    ---      BYTE      localTxQueue
      R6          REGSYM    ---      BYTE      txQueueIdx
      00FF5A08H   BLOCK     CODE     NEAR LAB  LVL=1
      R10         REGSYM    ---      BYTE      retValue
      ---         BLOCKEND  ---      ---       LVL=1
      00FF5A04H   LINE      CODE     ---       #89
      00FF5A08H   LINE      CODE     ---       #90
      00FF5A08H   LINE      CODE     ---       #92
      00FF5A08H   LINE      CODE     ---       #93
      00FF5A08H   LINE      CODE     ---       #94
      00FF5A0BH   LINE      CODE     ---       #96
      00FF5A0FH   LINE      CODE     ---       #98
      00FF5A13H   LINE      CODE     ---       #99
      00FF5A15H   LINE      CODE     ---       #102
      00FF5A21H   LINE      CODE     ---       #103
      00FF5A21H   LINE      CODE     ---       #106
      00FF5A3AH   LINE      CODE     ---       #108
      00FF5A3AH   LINE      CODE     ---       #109
      00FF5A43H   LINE      CODE     ---       #110
      00FF5A45H   LINE      CODE     ---       #111
      00FF5A45H   LINE      CODE     ---       #112
      00FF5A4EH   LINE      CODE     ---       #113
      00FF5A50H   LINE      CODE     ---       #114
      00FF5A50H   LINE      CODE     ---       #115
      00FF5A59H   LINE      CODE     ---       #116
      00FF5A5BH   LINE      CODE     ---       #117
      00FF5A5BH   LINE      CODE     ---       #118
      00FF5A64H   LINE      CODE     ---       #119
      00FF5A66H   LINE      CODE     ---       #120
      00FF5A66H   LINE      CODE     ---       #121
      00FF5A72H   LINE      CODE     ---       #122
      00FF5A72H   LINE      CODE     ---       #124
      00FF5A72H   LINE      CODE     ---       #126
      00FF5A7BH   LINE      CODE     ---       #133
      00FF5A7DH   LINE      CODE     ---       #134
      ---         BLOCKEND  ---      ---       LVL=0

      00FF7B2FH   BLOCK     CODE     ---       LVL=0
      WR0         REGSYM    ---      WORD      pktInterval
      R5          REGSYM    ---      BYTE      ackRequest
      WR2         REGSYM    ---      WORD      interFrameSpace
L251 LINKER/LOCATER V4.66.93.0                                                        01/04/2022  17:06:11  PAGE 96


      DR28        REGSYM    ---      DWORD     ackWaitDuration
      00FF7B2FH   LINE      CODE     ---       #140
      00FF7B37H   LINE      CODE     ---       #143
      00FF7B3BH   LINE      CODE     ---       #146
      00FF7B4CH   LINE      CODE     ---       #150
      00FF7B4EH   LINE      CODE     ---       #154
      00FF7B59H   LINE      CODE     ---       #155
      00FF7B59H   LINE      CODE     ---       #157
      ---         BLOCKEND  ---      ---       LVL=0

      00FF63B4H   BLOCK     CODE     ---       LVL=0
      R11         REGSYM    ---      BYTE      bLocalTxQueue
      R10         REGSYM    ---      BYTE      txQueueIdx
      0000AD25H   SYMBOL    EDATA    INT       aesLv
      WR12        REGSYM    ---      WORD      aDataLen
      WR14        REGSYM    ---      WORD      mDataLen
      00FF63C0H   BLOCK     CODE     NEAR LAB  LVL=1
      0000AD27H   SYMBOL    EDATA    BYTE      retValue
      ---         BLOCKEND  ---      ---       LVL=1
      00FF63B4H   LINE      CODE     ---       #160
      00FF63C0H   LINE      CODE     ---       #161
      00FF63C0H   LINE      CODE     ---       #163
      00FF63C2H   LINE      CODE     ---       #165
      00FF63D0H   LINE      CODE     ---       #166
      00FF63D9H   LINE      CODE     ---       #167
      00FF63DBH   LINE      CODE     ---       #170
      00FF63E8H   LINE      CODE     ---       #171
      00FF63F6H   LINE      CODE     ---       #172
      00FF63F6H   LINE      CODE     ---       #173
      00FF63FCH   LINE      CODE     ---       #175
      00FF63FFH   LINE      CODE     ---       #176
      00FF63FFH   LINE      CODE     ---       #178
      00FF6417H   LINE      CODE     ---       #179
      00FF6419H   LINE      CODE     ---       #180
      ---         BLOCKEND  ---      ---       LVL=0

      00FF6062H   BLOCK     CODE     ---       LVL=0
      0000ACFBH   SYMBOL    EDATA    INT       aesLv
      0000ACFDH   SYMBOL    EDATA    WORD      aDataLen
      WR12        REGSYM    ---      WORD      mDataLen
      00FF606EH   BLOCK     CODE     NEAR LAB  LVL=1
      R15         REGSYM    ---      BYTE      retValue
      ---         BLOCKEND  ---      ---       LVL=1
      00FF6062H   LINE      CODE     ---       #183
      00FF606EH   LINE      CODE     ---       #184
      00FF606EH   LINE      CODE     ---       #188
      00FF6075H   LINE      CODE     ---       #189
      00FF6080H   LINE      CODE     ---       #190
      00FF6082H   LINE      CODE     ---       #193
      00FF608EH   LINE      CODE     ---       #194
      00FF609AH   LINE      CODE     ---       #198
      00FF60C7H   LINE      CODE     ---       #199
      00FF60CBH   LINE      CODE     ---       #200
      00FF60CBH   LINE      CODE     ---       #202
      00FF60CCH   LINE      CODE     ---       #203
      ---         BLOCKEND  ---      ---       LVL=0

      00FF8491H   BLOCK     CODE     ---       LVL=0
      00FF8491H   LINE      CODE     ---       #206
      00FF8491H   LINE      CODE     ---       #207
      00FF8491H   LINE      CODE     ---       #208
      00FF8491H   LINE      CODE     ---       #210
      00FF8494H   LINE      CODE     ---       #213
      ---         BLOCKEND  ---      ---       LVL=0

L251 LINKER/LOCATER V4.66.93.0                                                        01/04/2022  17:06:11  PAGE 97


      00FF568FH   BLOCK     CODE     ---       LVL=0
      R10         REGSYM    ---      BYTE      bLocalRxQueue
      WR14        REGSYM    ---      INT       aesLv
      00FF5697H   BLOCK     CODE     NEAR LAB  LVL=1
      ---         BLOCKEND  ---      ---       LVL=1
      00FF568FH   LINE      CODE     ---       #217
      00FF5697H   LINE      CODE     ---       #218
      00FF5697H   LINE      CODE     ---       #219
      00FF5697H   LINE      CODE     ---       #220
      00FF569BH   LINE      CODE     ---       #222
      00FF56A4H   LINE      CODE     ---       #223
      00FF56ADH   LINE      CODE     ---       #224
      00FF56AFH   LINE      CODE     ---       #227
      00FF56B6H   LINE      CODE     ---       #228
      00FF56C4H   LINE      CODE     ---       #229
      00FF56C4H   LINE      CODE     ---       #230
      00FF56C8H   LINE      CODE     ---       #232
      00FF56CBH   LINE      CODE     ---       #233
      00FF56CBH   LINE      CODE     ---       #238
      00FF56D0H   LINE      CODE     ---       #243
      00FF56E7H   LINE      CODE     ---       #244
      00FF56E9H   LINE      CODE     ---       #249
      00FF5708H   LINE      CODE     ---       #250
      00FF5708H   LINE      CODE     ---       #251
      00FF570AH   LINE      CODE     ---       #252
      ---         BLOCKEND  ---      ---       LVL=0

      00FF8691H   BLOCK     CODE     ---       LVL=0
      R10         REGSYM    ---      BYTE      rfStateTmp
      00FF8691H   LINE      CODE     ---       #254
      00FF8691H   LINE      CODE     ---       #255
      00FF8691H   LINE      CODE     ---       #256
      00FF8691H   LINE      CODE     ---       #258
      00FF8691H   LINE      CODE     ---       #260
      00FF869BH   LINE      CODE     ---       #262
      00FF86A0H   LINE      CODE     ---       #264
      ---         BLOCKEND  ---      ---       LVL=0

      00FF6B8AH   BLOCK     CODE     ---       LVL=0
      DR4         REGSYM    ---      DWORD     ccaTime
      0000ACFFH   SYMBOL    EDATA    DWORD     backoffDuration
      00FF6B8AH   LINE      CODE     ---       #267
      00FF6B8AH   LINE      CODE     ---       #268
      00FF6B8AH   LINE      CODE     ---       #269
      00FF6B8AH   LINE      CODE     ---       #270
      00FF6B90H   LINE      CODE     ---       #272
      00FF6B93H   LINE      CODE     ---       #278
      00FF6B99H   LINE      CODE     ---       #281
      00FF6BA0H   LINE      CODE     ---       #283
      00FF6BA9H   LINE      CODE     ---       #284
      00FF6BC1H   LINE      CODE     ---       #287
      00FF6BCDH   LINE      CODE     ---       #288
      00FF6BD0H   LINE      CODE     ---       #291
      00FF6BDCH   LINE      CODE     ---       #292
      ---         BLOCKEND  ---      ---       LVL=0

      00FF588CH   BLOCK     CODE     ---       LVL=0
      00FF5890H   BLOCK     CODE     NEAR LAB  LVL=1
      R5          REGSYM    ---      CHAR      ibRssi
      R7          REGSYM    ---      BYTE      cpmputeRssi
      R4          REGSYM    ---      BYTE      lnaGain
      R7          REGSYM    ---      BYTE      tiaGain
      R6          REGSYM    ---      BYTE      vgaGain
      R13         REGSYM    ---      BYTE      edState
      R14         REGSYM    ---      BYTE      csState
L251 LINKER/LOCATER V4.66.93.0                                                        01/04/2022  17:06:11  PAGE 98


      R15         REGSYM    ---      BYTE      ccaStatus
      ---         BLOCKEND  ---      ---       LVL=1
      00FF588CH   LINE      CODE     ---       #294
      00FF5890H   LINE      CODE     ---       #295
      00FF5890H   LINE      CODE     ---       #299
      00FF5892H   LINE      CODE     ---       #300
      00FF5894H   LINE      CODE     ---       #301
      00FF5896H   LINE      CODE     ---       #303
      00FF589DH   LINE      CODE     ---       #304
      00FF58A9H   LINE      CODE     ---       #305
      00FF58B1H   LINE      CODE     ---       #306
      00FF58BBH   LINE      CODE     ---       #307
      00FF58C2H   LINE      CODE     ---       #312
      00FF58C8H   LINE      CODE     ---       #313
      00FF58CBH   LINE      CODE     ---       #318
      00FF58DDH   LINE      CODE     ---       #321
      00FF58E0H   LINE      CODE     ---       #322
      00FF58E0H   LINE      CODE     ---       #326
      00FF58F1H   LINE      CODE     ---       #328
      00FF58F1H   LINE      CODE     ---       #329
      00FF58F3H   LINE      CODE     ---       #330
      00FF58F5H   LINE      CODE     ---       #331
      00FF58F5H   LINE      CODE     ---       #332
      00FF58F7H   LINE      CODE     ---       #333
      00FF58F9H   LINE      CODE     ---       #334
      00FF58F9H   LINE      CODE     ---       #335
      00FF58FDH   LINE      CODE     ---       #336
      00FF58FFH   LINE      CODE     ---       #337
      00FF58FFH   LINE      CODE     ---       #338
      00FF5903H   LINE      CODE     ---       #339
      00FF5903H   LINE      CODE     ---       #340
      00FF5903H   LINE      CODE     ---       #341
      00FF5905H   LINE      CODE     ---       #342
      ---         BLOCKEND  ---      ---       LVL=0

      00FF8818H   BLOCK     CODE     ---       LVL=0
      REG=3       REGSYM    ---      ---       pMhr
      00FF8818H   LINE      CODE     ---       #344
      00FF8818H   LINE      CODE     ---       #345
      00FF8818H   LINE      CODE     ---       #346
      00FF881CH   LINE      CODE     ---       #347
      ---         BLOCKEND  ---      ---       LVL=0

      00FF861AH   BLOCK     CODE     ---       LVL=0
      00FF861AH   LINE      CODE     ---       #351
      00FF861AH   LINE      CODE     ---       #353
      00FF8622H   LINE      CODE     ---       #354
      00FF8627H   LINE      CODE     ---       #355
      00FF862BH   LINE      CODE     ---       #356
      ---         BLOCKEND  ---      ---       LVL=0

      00FF000EH   BLOCK     CODE     ---       LVL=0
      00FF0012H   BLOCK     CODE     NEAR LAB  LVL=1
      WR14        REGSYM    ---      WORD      macFunEventQueue
      R11         REGSYM    ---      BYTE      macRxInfo
      R13         REGSYM    ---      BYTE      ccaStatus
      R11         REGSYM    ---      BYTE      trx_state
      ---         BLOCKEND  ---      ---       LVL=1
      00FF000EH   LINE      CODE     ---       #962
      00FF0012H   LINE      CODE     ---       #963
      00FF0012H   LINE      CODE     ---       #964
      00FF0014H   LINE      CODE     ---       #965
      00FF0014H   LINE      CODE     ---       #966
      00FF0014H   LINE      CODE     ---       #967
      00FF0014H   LINE      CODE     ---       #968
L251 LINKER/LOCATER V4.66.93.0                                                        01/04/2022  17:06:11  PAGE 99


      00FF0014H   LINE      CODE     ---       #971
      00FF0020H   LINE      CODE     ---       #973
      00FF0020H   LINE      CODE     ---       #974
      00FF0020H   LINE      CODE     ---       #979
      00FF004FH   LINE      CODE     ---       #981
      00FF004FH   LINE      CODE     ---       #983
      00FF0052H   LINE      CODE     ---       #984
      00FF0055H   LINE      CODE     ---       #1006
      00FF005BH   LINE      CODE     ---       #1012
      00FF0069H   LINE      CODE     ---       #1014
      00FF006CH   LINE      CODE     ---       #1018
      00FF006FH   LINE      CODE     ---       #1021
      00FF0073H   LINE      CODE     ---       #1022
      00FF0075H   LINE      CODE     ---       #1023
      00FF007CH   LINE      CODE     ---       #1027
      00FF0082H   LINE      CODE     ---       #1030
      00FF0085H   LINE      CODE     ---       #1033
      00FF0088H   LINE      CODE     ---       #1036
      00FF008BH   LINE      CODE     ---       #1039
      00FF0093H   LINE      CODE     ---       #1041
      00FF0095H   LINE      CODE     ---       #1044
      00FF0098H   LINE      CODE     ---       #1049
      00FF00A6H   LINE      CODE     ---       #1052
      00FF00A9H   LINE      CODE     ---       #1053
      00FF00A9H   LINE      CODE     ---       #1055
      00FF00A9H   LINE      CODE     ---       #1056
      00FF00ACH   LINE      CODE     ---       #1057
      00FF00ACH   LINE      CODE     ---       #1060
      00FF00B3H   LINE      CODE     ---       #1065
      00FF00B6H   LINE      CODE     ---       #1066
      00FF00B6H   LINE      CODE     ---       #1067
      00FF00BBH   LINE      CODE     ---       #1068
      00FF00C4H   LINE      CODE     ---       #1070
      00FF00C6H   LINE      CODE     ---       #1072
      00FF00E0H   LINE      CODE     ---       #1074
      00FF00E3H   LINE      CODE     ---       #1075
      00FF00EAH   LINE      CODE     ---       #1076
      00FF00ECH   LINE      CODE     ---       #1077
      00FF00EFH   LINE      CODE     ---       #1078
      00FF00EFH   LINE      CODE     ---       #1079
      00FF00F1H   LINE      CODE     ---       #1082
      00FF00F6H   LINE      CODE     ---       #1083
      00FF00FBH   LINE      CODE     ---       #1085
      00FF00FEH   LINE      CODE     ---       #1086
      00FF0108H   LINE      CODE     ---       #1088
      00FF010BH   LINE      CODE     ---       #1093
      00FF0116H   LINE      CODE     ---       #1096
      00FF0119H   LINE      CODE     ---       #1097
      00FF0119H   LINE      CODE     ---       #1100
      00FF011CH   LINE      CODE     ---       #1101
      00FF011CH   LINE      CODE     ---       #1102
      00FF011FH   LINE      CODE     ---       #1103
      00FF011FH   LINE      CODE     ---       #1106
      00FF0122H   LINE      CODE     ---       #1109
      00FF012AH   LINE      CODE     ---       #1111
      00FF0133H   LINE      CODE     ---       #1112
      00FF0136H   LINE      CODE     ---       #1113
      00FF013DH   LINE      CODE     ---       #1115
      00FF0140H   LINE      CODE     ---       #1118
      00FF0143H   LINE      CODE     ---       #1123
      00FF0153H   LINE      CODE     ---       #1125
      00FF0156H   LINE      CODE     ---       #1128
      00FF0159H   LINE      CODE     ---       #1130
      00FF0161H   LINE      CODE     ---       #1131
      00FF0166H   LINE      CODE     ---       #1134
L251 LINKER/LOCATER V4.66.93.0                                                        01/04/2022  17:06:11  PAGE 100


      00FF016AH   LINE      CODE     ---       #1135
      00FF016DH   LINE      CODE     ---       #1138
      00FF0176H   LINE      CODE     ---       #1140
      00FF0179H   LINE      CODE     ---       #1141
      00FF017CH   LINE      CODE     ---       #1146
      00FF0187H   LINE      CODE     ---       #1149
      00FF018AH   LINE      CODE     ---       #1150
      00FF018AH   LINE      CODE     ---       #1152
      00FF0192H   LINE      CODE     ---       #1153
      00FF0195H   LINE      CODE     ---       #1154
      00FF0195H   LINE      CODE     ---       #1156
      00FF0198H   LINE      CODE     ---       #1157
      00FF0198H   LINE      CODE     ---       #1158
      00FF019DH   LINE      CODE     ---       #1159
      00FF01A6H   LINE      CODE     ---       #1161
      00FF01A9H   LINE      CODE     ---       #1162
      00FF01ACH   LINE      CODE     ---       #1163
      00FF01C4H   LINE      CODE     ---       #1166
      00FF01CDH   LINE      CODE     ---       #1168
      00FF01D0H   LINE      CODE     ---       #1169
      00FF01D2H   LINE      CODE     ---       #1170
      00FF01D6H   LINE      CODE     ---       #1171
      00FF01D6H   LINE      CODE     ---       #1174
      00FF01DCH   LINE      CODE     ---       #1176
      00FF01E0H   LINE      CODE     ---       #1177
      00FF01E3H   LINE      CODE     ---       #1181
      00FF01E6H   LINE      CODE     ---       #1183
      00FF01EDH   LINE      CODE     ---       #1184
      00FF01F0H   LINE      CODE     ---       #1185
      00FF01F0H   LINE      CODE     ---       #1190
      00FF020FH   LINE      CODE     ---       #1192
      00FF0212H   LINE      CODE     ---       #1195
      00FF0216H   LINE      CODE     ---       #1196
      00FF0216H   LINE      CODE     ---       #1198
      00FF0216H   LINE      CODE     ---       #1200
      00FF0219H   LINE      CODE     ---       #1202
      00FF0219H   LINE      CODE     ---       #1203
      00FF021EH   LINE      CODE     ---       #1204
      00FF0224H   LINE      CODE     ---       #1206
      00FF0227H   LINE      CODE     ---       #1208
      00FF022BH   LINE      CODE     ---       #1209
      00FF022EH   LINE      CODE     ---       #1210
      00FF0246H   LINE      CODE     ---       #1212
      00FF0249H   LINE      CODE     ---       #1213
      00FF024CH   LINE      CODE     ---       #1215
      00FF0250H   LINE      CODE     ---       #1217
      00FF0253H   LINE      CODE     ---       #1218
      00FF025CH   LINE      CODE     ---       #1220
      00FF025FH   LINE      CODE     ---       #1223
      00FF0269H   LINE      CODE     ---       #1225
      00FF026CH   LINE      CODE     ---       #1227
      00FF0270H   LINE      CODE     ---       #1228
      00FF0273H   LINE      CODE     ---       #1231
      00FF0276H   LINE      CODE     ---       #1237
      00FF0281H   LINE      CODE     ---       #1239
      00FF0284H   LINE      CODE     ---       #1242
      00FF0287H   LINE      CODE     ---       #1244
      00FF028BH   LINE      CODE     ---       #1245
      00FF028BH   LINE      CODE     ---       #1246
      00FF028BH   LINE      CODE     ---       #1247
      00FF028BH   LINE      CODE     ---       #1249
      00FF028EH   LINE      CODE     ---       #1251
      00FF028EH   LINE      CODE     ---       #1252
      00FF0293H   LINE      CODE     ---       #1253
      00FF02AEH   LINE      CODE     ---       #1255
L251 LINKER/LOCATER V4.66.93.0                                                        01/04/2022  17:06:11  PAGE 101


      00FF02B1H   LINE      CODE     ---       #1258
      00FF02B8H   LINE      CODE     ---       #1260
      00FF02C3H   LINE      CODE     ---       #1261
      00FF02C5H   LINE      CODE     ---       #1263
      00FF02CFH   LINE      CODE     ---       #1265
      00FF02D2H   LINE      CODE     ---       #1272
      00FF02DFH   LINE      CODE     ---       #1273
      00FF02E8H   LINE      CODE     ---       #1275
      00FF02EBH   LINE      CODE     ---       #1278
      00FF02FDH   LINE      CODE     ---       #1279
      00FF0305H   LINE      CODE     ---       #1280
      00FF0308H   LINE      CODE     ---       #1284
      00FF0310H   LINE      CODE     ---       #1285
      00FF0313H   LINE      CODE     ---       #1286
      00FF0313H   LINE      CODE     ---       #1288
      00FF0313H   LINE      CODE     ---       #1289
      00FF0316H   LINE      CODE     ---       #1290
      00FF0316H   LINE      CODE     ---       #1292
      00FF0319H   LINE      CODE     ---       #1293
      00FF0319H   LINE      CODE     ---       #1294
      00FF031BH   LINE      CODE     ---       #1297
      00FF031EH   LINE      CODE     ---       #1298
      00FF031EH   LINE      CODE     ---       #1299
      00FF0321H   LINE      CODE     ---       #1300
      00FF032DH   LINE      CODE     ---       #1304
      00FF0337H   LINE      CODE     ---       #1307
      00FF033BH   LINE      CODE     ---       #1308
      00FF033DH   LINE      CODE     ---       #1311
      00FF0340H   LINE      CODE     ---       #1317
      00FF034BH   LINE      CODE     ---       #1319
      00FF034EH   LINE      CODE     ---       #1321
      00FF0356H   LINE      CODE     ---       #1322
      00FF0356H   LINE      CODE     ---       #1323
      00FF035FH   LINE      CODE     ---       #1324
      00FF035FH   LINE      CODE     ---       #1327
      00FF0362H   LINE      CODE     ---       #1328
      00FF0362H   LINE      CODE     ---       #1329
      00FF0367H   LINE      CODE     ---       #1330
      00FF036AH   LINE      CODE     ---       #1331
      00FF03ECH   LINE      CODE     ---       #1333
      00FF03ECH   LINE      CODE     ---       #1334
      00FF03ECH   LINE      CODE     ---       #1335
      00FF03ECH   LINE      CODE     ---       #1336
      00FF03ECH   LINE      CODE     ---       #1337
      00FF03ECH   LINE      CODE     ---       #1338
      00FF03F0H   LINE      CODE     ---       #1339
      00FF03F2H   LINE      CODE     ---       #1340
      00FF03F2H   LINE      CODE     ---       #1341
      00FF03F5H   LINE      CODE     ---       #1342
      00FF03F5H   LINE      CODE     ---       #1343
      00FF03F5H   LINE      CODE     ---       #1344
      00FF03F5H   LINE      CODE     ---       #1345
      00FF03FDH   LINE      CODE     ---       #1346
      00FF03FFH   LINE      CODE     ---       #1347
      00FF03FFH   LINE      CODE     ---       #1348
      00FF0404H   LINE      CODE     ---       #1349
      00FF0404H   LINE      CODE     ---       #1350
      00FF0404H   LINE      CODE     ---       #1351
      00FF0410H   LINE      CODE     ---       #1352
      00FF0412H   LINE      CODE     ---       #1353
      00FF0412H   LINE      CODE     ---       #1354
      00FF0417H   LINE      CODE     ---       #1355
      00FF041AH   LINE      CODE     ---       #1356
      00FF0420H   LINE      CODE     ---       #1358
      00FF0423H   LINE      CODE     ---       #1359
L251 LINKER/LOCATER V4.66.93.0                                                        01/04/2022  17:06:11  PAGE 102


      00FF042BH   LINE      CODE     ---       #1360
      00FF042BH   LINE      CODE     ---       #1361
      00FF042DH   LINE      CODE     ---       #1362
      00FF042DH   LINE      CODE     ---       #1363
      00FF0430H   LINE      CODE     ---       #1365
      00FF0433H   LINE      CODE     ---       #1368
      00FF0438H   LINE      CODE     ---       #1370
      00FF043DH   LINE      CODE     ---       #1371
      00FF0443H   LINE      CODE     ---       #1373
      00FF0447H   LINE      CODE     ---       #1374
      00FF0449H   LINE      CODE     ---       #1375
      00FF044DH   LINE      CODE     ---       #1376
      00FF044DH   LINE      CODE     ---       #1384
      00FF0453H   LINE      CODE     ---       #1385
      00FF0459H   LINE      CODE     ---       #1388
      00FF045EH   LINE      CODE     ---       #1389
      00FF0460H   LINE      CODE     ---       #1393
      00FF0466H   LINE      CODE     ---       #1394
      00FF046EH   LINE      CODE     ---       #1395
      00FF046EH   LINE      CODE     ---       #1398
      00FF0475H   LINE      CODE     ---       #1404
      00FF0475H   LINE      CODE     ---       #1405
      00FF0475H   LINE      CODE     ---       #1406
      00FF0475H   LINE      CODE     ---       #1407
      00FF0475H   LINE      CODE     ---       #1408
      ---         BLOCKEND  ---      ---       LVL=0

      ---         MODULE    ---      ---       mac_cad

      ---         MODULE    ---      ---       mac_scheduler

      ---         MODULE    ---      ---       mac_RfeRx
      00FF6C2EH   PUBLIC    CODE     ---       MAC_RfeRxDisable
      00FF839AH   PUBLIC    CODE     ---       MAC_RfeRxRptGet
      00FF5AFCH   PUBLIC    CODE     ---       MAC_RfeRxParInit
      00FF08D5H   PUBLIC    CODE     ---       MAC_RfeRxSchedule
      00FF870AH   PUBLIC    CODE     ---       MAC_RfeRxAonTaskDisable
      00FF654EH   PUBLIC    CODE     ---       MAC_RfeSecLbHwSet
      00FF3A88H   PUBLIC    CODE     ---       MAC_RfeRxDataConfirm
      0000ABAEH   PUBLIC    EDATA    INT       gMacRfeRxState
      0000ABB0H   PUBLIC    EDATA    ---       gMacRfeRxCtrl
      0000ABC0H   PUBLIC    EDATA    ---       gMacRfeRpt
      000000A8H.7 SFRSYM    DATA     BIT       EA
      00000080H   SFRSYM    DATA     BYTE      P0

      00FF6C2EH   BLOCK     CODE     ---       LVL=0
      R15         REGSYM    ---      BYTE      bTxSecClr
      00FF6C2EH   LINE      CODE     ---       #52
      00FF6C32H   LINE      CODE     ---       #54
      00FF6C34H   LINE      CODE     ---       #58
      00FF6C37H   LINE      CODE     ---       #59
      00FF6C52H   LINE      CODE     ---       #60
      00FF6C55H   LINE      CODE     ---       #61
      00FF6C5CH   LINE      CODE     ---       #62
      00FF6C62H   LINE      CODE     ---       #63
      00FF6C6DH   LINE      CODE     ---       #64
      00FF6C71H   LINE      CODE     ---       #65
      00FF6C7CH   LINE      CODE     ---       #66
      ---         BLOCKEND  ---      ---       LVL=0

      00FF870AH   BLOCK     CODE     ---       LVL=0
      00FF870AH   LINE      CODE     ---       #68
      00FF870AH   LINE      CODE     ---       #70
      00FF870CH   LINE      CODE     ---       #71
      00FF8712H   LINE      CODE     ---       #72
L251 LINKER/LOCATER V4.66.93.0                                                        01/04/2022  17:06:11  PAGE 103


      00FF8716H   LINE      CODE     ---       #73
      00FF8718H   LINE      CODE     ---       #74
      ---         BLOCKEND  ---      ---       LVL=0

      00FF839AH   BLOCK     CODE     ---       LVL=0
      REG=3       REGSYM    ---      ---       pPassCnt
      REG=2       REGSYM    ---      ---       pFailCnt
      00FF839AH   LINE      CODE     ---       #76
      00FF839AH   LINE      CODE     ---       #78
      00FF83A5H   LINE      CODE     ---       #79
      00FF83B0H   LINE      CODE     ---       #80
      ---         BLOCKEND  ---      ---       LVL=0

      00FF654EH   BLOCK     CODE     ---       LVL=0
      WR8         REGSYM    ---      WORD      pktLen
      00FF6550H   BLOCK     CODE     NEAR LAB  LVL=1
      WR4         REGSYM    ---      WORD      aDataLen
      WR2         REGSYM    ---      WORD      mDataLen
      WR6         REGSYM    ---      WORD      payloadLen
      R7          REGSYM    ---      BYTE      micLen
      ---         BLOCKEND  ---      ---       LVL=1
      00FF654EH   LINE      CODE     ---       #82
      00FF6550H   LINE      CODE     ---       #83
      00FF6550H   LINE      CODE     ---       #87
      00FF6554H   LINE      CODE     ---       #88
      00FF6558H   LINE      CODE     ---       #89
      00FF6579H   LINE      CODE     ---       #90
      00FF657FH   LINE      CODE     ---       #91
      00FF6581H   LINE      CODE     ---       #92
      00FF6587H   LINE      CODE     ---       #93
      00FF658DH   LINE      CODE     ---       #95
      00FF6591H   LINE      CODE     ---       #96
      00FF6593H   LINE      CODE     ---       #98
      00FF6597H   LINE      CODE     ---       #99
      00FF6599H   LINE      CODE     ---       #100
      00FF659FH   LINE      CODE     ---       #102
      00FF65A3H   LINE      CODE     ---       #103
      00FF65A5H   LINE      CODE     ---       #105
      00FF65A9H   LINE      CODE     ---       #106
      00FF65A9H   LINE      CODE     ---       #108
      00FF65B2H   LINE      CODE     ---       #109
      ---         BLOCKEND  ---      ---       LVL=0

      00FF3A88H   BLOCK     CODE     ---       LVL=0
      00FF3A8AH   BLOCK     CODE     NEAR LAB  LVL=1
      R7          REGSYM    ---      BYTE      dataTemp
      0000AD3CH   SYMBOL    EDATA    BYTE      phrLenTemp
      WR12        REGSYM    ---      WORD      dataLenTemp
      WR14        REGSYM    ---      WORD      idx
      ---         BLOCKEND  ---      ---       LVL=1
      00FF3A88H   LINE      CODE     ---       #111
      00FF3A8AH   LINE      CODE     ---       #112
      00FF3A8AH   LINE      CODE     ---       #117
      00FF3A9EH   LINE      CODE     ---       #119
      00FF3AC3H   LINE      CODE     ---       #120
      00FF3ACAH   LINE      CODE     ---       #123
      00FF3AD0H   LINE      CODE     ---       #124
      00FF3AE5H   LINE      CODE     ---       #126
      00FF3AF4H   LINE      CODE     ---       #128
      00FF3AFCH   LINE      CODE     ---       #130
      00FF3B00H   LINE      CODE     ---       #132
      00FF3B1DH   LINE      CODE     ---       #133
      00FF3B20H   LINE      CODE     ---       #134
      00FF3B26H   LINE      CODE     ---       #135
      00FF3B28H   LINE      CODE     ---       #138
L251 LINKER/LOCATER V4.66.93.0                                                        01/04/2022  17:06:11  PAGE 104


      00FF3B37H   LINE      CODE     ---       #139
      00FF3B3BH   LINE      CODE     ---       #141
      00FF3B47H   LINE      CODE     ---       #142
      00FF3B4AH   LINE      CODE     ---       #143
      00FF3B50H   LINE      CODE     ---       #144
      00FF3B50H   LINE      CODE     ---       #145
      00FF3B50H   LINE      CODE     ---       #146
      00FF3B52H   LINE      CODE     ---       #147
      ---         BLOCKEND  ---      ---       LVL=0

      00FF5AFCH   BLOCK     CODE     ---       LVL=0
      R1          REGSYM    ---      BYTE      pktType
      R2          REGSYM    ---      BYTE      queueType
      R3          REGSYM    ---      BYTE      rxType
      R10         REGSYM    ---      BYTE      ackEnable
      WR8         REGSYM    ---      WORD      ackInterval
      00FF5AFCH   LINE      CODE     ---       #149
      00FF5B06H   LINE      CODE     ---       #151
      00FF5B0BH   LINE      CODE     ---       #152
      00FF5B11H   LINE      CODE     ---       #153
      00FF5B17H   LINE      CODE     ---       #154
      00FF5B1BH   LINE      CODE     ---       #155
      00FF5B1FH   LINE      CODE     ---       #156
      00FF5B23H   LINE      CODE     ---       #157
      00FF5B2DH   LINE      CODE     ---       #158
      00FF5B37H   LINE      CODE     ---       #160
      00FF5B3BH   LINE      CODE     ---       #161
      00FF5B3FH   LINE      CODE     ---       #162
      00FF5B43H   LINE      CODE     ---       #164
      00FF5B48H   LINE      CODE     ---       #168
      00FF5B4CH   LINE      CODE     ---       #170
      00FF5B54H   LINE      CODE     ---       #171
      00FF5B67H   LINE      CODE     ---       #172
      00FF5B76H   LINE      CODE     ---       #173
      ---         BLOCKEND  ---      ---       LVL=0

      00FF08D5H   BLOCK     CODE     ---       LVL=0
      00FF08D9H   BLOCK     CODE     NEAR LAB  LVL=1
      WR14        REGSYM    ---      WORD      macFunEventQueue
      R13         REGSYM    ---      BYTE      retValue
      00FF0A9BH   BLOCK     CODE     NEAR LAB  LVL=2
      DR0         REGSYM    ---      DWORD     regTemp
      ---         BLOCKEND  ---      ---       LVL=2
      ---         BLOCKEND  ---      ---       LVL=1
      00FF08D5H   LINE      CODE     ---       #176
      00FF08D9H   LINE      CODE     ---       #177
      00FF08D9H   LINE      CODE     ---       #178
      00FF08D9H   LINE      CODE     ---       #182
      00FF08E5H   LINE      CODE     ---       #184
      00FF08E5H   LINE      CODE     ---       #185
      00FF08E5H   LINE      CODE     ---       #188
      00FF091CH   LINE      CODE     ---       #190
      00FF091CH   LINE      CODE     ---       #191
      00FF091FH   LINE      CODE     ---       #194
      00FF0926H   LINE      CODE     ---       #197
      00FF093CH   LINE      CODE     ---       #199
      00FF0940H   LINE      CODE     ---       #202
      00FF0944H   LINE      CODE     ---       #203
      00FF0946H   LINE      CODE     ---       #206
      00FF094CH   LINE      CODE     ---       #207
      00FF0952H   LINE      CODE     ---       #209
      00FF0957H   LINE      CODE     ---       #227
      00FF095DH   LINE      CODE     ---       #230
      00FF0963H   LINE      CODE     ---       #232
      00FF0966H   LINE      CODE     ---       #233
L251 LINKER/LOCATER V4.66.93.0                                                        01/04/2022  17:06:11  PAGE 105


      00FF096BH   LINE      CODE     ---       #234
      00FF096BH   LINE      CODE     ---       #238
      00FF0971H   LINE      CODE     ---       #239
      00FF097AH   LINE      CODE     ---       #240
      00FF0980H   LINE      CODE     ---       #242
      00FF0983H   LINE      CODE     ---       #243
      00FF0988H   LINE      CODE     ---       #244
      00FF0988H   LINE      CODE     ---       #247
      00FF0990H   LINE      CODE     ---       #248
      00FF0990H   LINE      CODE     ---       #251
      00FF099DH   LINE      CODE     ---       #253
      00FF09A8H   LINE      CODE     ---       #254
      00FF09B3H   LINE      CODE     ---       #255
      00FF09BEH   LINE      CODE     ---       #256
      00FF09CEH   LINE      CODE     ---       #257
      00FF09DBH   LINE      CODE     ---       #258
      00FF09E9H   LINE      CODE     ---       #260
      00FF09F9H   LINE      CODE     ---       #261
      00FF0A08H   LINE      CODE     ---       #262
      00FF0A13H   LINE      CODE     ---       #263
      00FF0A1AH   LINE      CODE     ---       #264
      00FF0A21H   LINE      CODE     ---       #265
      00FF0A2CH   LINE      CODE     ---       #266
      00FF0A37H   LINE      CODE     ---       #267
      00FF0A3EH   LINE      CODE     ---       #268
      00FF0A45H   LINE      CODE     ---       #269
      00FF0A50H   LINE      CODE     ---       #270
      00FF0A50H   LINE      CODE     ---       #273
      00FF0A53H   LINE      CODE     ---       #275
      00FF0A53H   LINE      CODE     ---       #276
      00FF0A58H   LINE      CODE     ---       #277
      00FF0A5EH   LINE      CODE     ---       #279
      00FF0A61H   LINE      CODE     ---       #280
      00FF0A61H   LINE      CODE     ---       #281
      00FF0A63H   LINE      CODE     ---       #282
      00FF0A69H   LINE      CODE     ---       #284
      00FF0A70H   LINE      CODE     ---       #285
      00FF0A73H   LINE      CODE     ---       #286
      00FF0A77H   LINE      CODE     ---       #287
      00FF0A7AH   LINE      CODE     ---       #288
      00FF0A80H   LINE      CODE     ---       #290
      00FF0A83H   LINE      CODE     ---       #291
      00FF0A83H   LINE      CODE     ---       #294
      00FF0A83H   LINE      CODE     ---       #295
      00FF0A86H   LINE      CODE     ---       #297
      00FF0A93H   LINE      CODE     ---       #299
      00FF0A9BH   LINE      CODE     ---       #300
      00FF0A9BH   LINE      CODE     ---       #301
      00FF0AA6H   LINE      CODE     ---       #302
      00FF0AADH   LINE      CODE     ---       #303
      00FF0AB4H   LINE      CODE     ---       #304
      00FF0AC2H   LINE      CODE     ---       #305
      00FF0AD1H   LINE      CODE     ---       #306
      00FF0AECH   LINE      CODE     ---       #307
      00FF0AFDH   LINE      CODE     ---       #309
      00FF0B0BH   LINE      CODE     ---       #310
      00FF0B0BH   LINE      CODE     ---       #311
      00FF0B14H   LINE      CODE     ---       #312
      00FF0B14H   LINE      CODE     ---       #314
      00FF0B17H   LINE      CODE     ---       #316
      00FF0B17H   LINE      CODE     ---       #317
      00FF0B1CH   LINE      CODE     ---       #318
      00FF0B25H   LINE      CODE     ---       #320
      00FF0B28H   LINE      CODE     ---       #323
      00FF0B37H   LINE      CODE     ---       #326
L251 LINKER/LOCATER V4.66.93.0                                                        01/04/2022  17:06:11  PAGE 106


      00FF0B45H   LINE      CODE     ---       #327
      00FF0B49H   LINE      CODE     ---       #330
      00FF0B50H   LINE      CODE     ---       #332
      00FF0B66H   LINE      CODE     ---       #336
      00FF0B6EH   LINE      CODE     ---       #339
      00FF0B74H   LINE      CODE     ---       #341
      00FF0B77H   LINE      CODE     ---       #342
      00FF0B7DH   LINE      CODE     ---       #343
      00FF0B7DH   LINE      CODE     ---       #346
      00FF0B88H   LINE      CODE     ---       #349
      00FF0B8AH   LINE      CODE     ---       #350
      00FF0B91H   LINE      CODE     ---       #353
      00FF0B91H   LINE      CODE     ---       #356
      00FF0B91H   LINE      CODE     ---       #357
      00FF0B91H   LINE      CODE     ---       #358
      00FF0B93H   LINE      CODE     ---       #362
      00FF0B93H   LINE      CODE     ---       #365
      00FF0B93H   LINE      CODE     ---       #366
      00FF0B93H   LINE      CODE     ---       #367
      00FF0B93H   LINE      CODE     ---       #368
      00FF0B95H   LINE      CODE     ---       #370
      00FF0B95H   LINE      CODE     ---       #371
      00FF0B9AH   LINE      CODE     ---       #372
      00FF0BA3H   LINE      CODE     ---       #374
      00FF0BA6H   LINE      CODE     ---       #377
      00FF0BB1H   LINE      CODE     ---       #380
      00FF0BB5H   LINE      CODE     ---       #383
      00FF0BB5H   LINE      CODE     ---       #384
      00FF0BB5H   LINE      CODE     ---       #385
      00FF0BB8H   LINE      CODE     ---       #387
      00FF0BB8H   LINE      CODE     ---       #390
      00FF0BBFH   LINE      CODE     ---       #393
      00FF0BC5H   LINE      CODE     ---       #394
      00FF0BC8H   LINE      CODE     ---       #396
      00FF0BD1H   LINE      CODE     ---       #398
      00FF0BE3H   LINE      CODE     ---       #400
      00FF0BE8H   LINE      CODE     ---       #401
      00FF0BEDH   LINE      CODE     ---       #403
      00FF0BF0H   LINE      CODE     ---       #404
      00FF0BFAH   LINE      CODE     ---       #405
      00FF0C17H   LINE      CODE     ---       #406
      00FF0C19H   LINE      CODE     ---       #407
      00FF0C1EH   LINE      CODE     ---       #409
      00FF0C21H   LINE      CODE     ---       #410
      00FF0C2BH   LINE      CODE     ---       #411
      00FF0C2DH   LINE      CODE     ---       #414
      00FF0C30H   LINE      CODE     ---       #415
      00FF0C3AH   LINE      CODE     ---       #416
      00FF0C3AH   LINE      CODE     ---       #419
      00FF0C40H   LINE      CODE     ---       #420
      00FF0C43H   LINE      CODE     ---       #422
      00FF0C4AH   LINE      CODE     ---       #425
      00FF0C50H   LINE      CODE     ---       #428
      00FF0C5CH   LINE      CODE     ---       #430
      00FF0C5FH   LINE      CODE     ---       #431
      00FF0C65H   LINE      CODE     ---       #432
      00FF0C65H   LINE      CODE     ---       #435
      00FF0C6DH   LINE      CODE     ---       #438
      00FF0C73H   LINE      CODE     ---       #441
      00FF0C85H   LINE      CODE     ---       #442
      00FF0C89H   LINE      CODE     ---       #445
      00FF0C9AH   LINE      CODE     ---       #446
      00FF0CA4H   LINE      CODE     ---       #448
      00FF0CB1H   LINE      CODE     ---       #451
      00FF0CB5H   LINE      CODE     ---       #452
L251 LINKER/LOCATER V4.66.93.0                                                        01/04/2022  17:06:11  PAGE 107


      00FF0CB7H   LINE      CODE     ---       #456
      00FF0CBBH   LINE      CODE     ---       #457
      00FF0CBBH   LINE      CODE     ---       #458
      00FF0CBDH   LINE      CODE     ---       #462
      00FF0CC5H   LINE      CODE     ---       #465
      00FF0CCCH   LINE      CODE     ---       #466
      00FF0CCCH   LINE      CODE     ---       #467
      00FF0CCEH   LINE      CODE     ---       #469
      00FF0CCEH   LINE      CODE     ---       #470
      00FF0CD3H   LINE      CODE     ---       #471
      00FF0CD9H   LINE      CODE     ---       #473
      00FF0CDCH   LINE      CODE     ---       #476
      00FF0CEAH   LINE      CODE     ---       #477
      00FF0CEEH   LINE      CODE     ---       #480
      00FF0CFBH   LINE      CODE     ---       #483
      00FF0D03H   LINE      CODE     ---       #486
      00FF0D07H   LINE      CODE     ---       #489
      00FF0D0DH   LINE      CODE     ---       #490
      00FF0D0DH   LINE      CODE     ---       #491
      00FF0D0FH   LINE      CODE     ---       #493
      00FF0D0FH   LINE      CODE     ---       #495
      00FF0D12H   LINE      CODE     ---       #498
      00FF0D15H   LINE      CODE     ---       #503
      00FF0D1DH   LINE      CODE     ---       #504
      00FF0D1DH   LINE      CODE     ---       #506
      00FF0D1DH   LINE      CODE     ---       #507
      00FF0D1DH   LINE      CODE     ---       #509
      00FF0D1DH   LINE      CODE     ---       #511
      00FF0D20H   LINE      CODE     ---       #512
      ---         BLOCKEND  ---      ---       LVL=0

      ---         MODULE    ---      ---       mac_RfeTx
      00FF49C1H   PUBLIC    CODE     ---       MAC_RfeTxParInit
      00FF169FH   PUBLIC    CODE     ---       MAC_RfeTxSchedule
      00FF715FH   PUBLIC    CODE     ---       MAC_RfeTxTaskSet
      00FF5D4EH   PUBLIC    CODE     ---       MAC_RfeTxPktLenUpdate
      00FF6C7FH   PUBLIC    CODE     ---       MAC_RfeTxHwSecSet
      00FF4C36H   PUBLIC    CODE     ---       MAC_RfeDataGen
      0000AC14H   PUBLIC    EDATA    INT       gMacRfeTxState
      0000AC16H   PUBLIC    EDATA    ---       gMacRfeTxCtrl
      00FFF988H   PUBLIC    HCONST   ---       MACRfeDataType
      00FFF98EH   PUBLIC    HCONST   ---       MACRfePrbs9
      00000080H   SFRSYM    DATA     BYTE      P0

      00FF715FH   BLOCK     CODE     ---       LVL=0
      R10         REGSYM    ---      BYTE      bRtcAutoEn
      00FF715FH   LINE      CODE     ---       #55
      00FF7161H   LINE      CODE     ---       #57
      00FF7167H   LINE      CODE     ---       #60
      00FF716BH   LINE      CODE     ---       #61
      00FF7185H   LINE      CODE     ---       #63
      00FF7195H   LINE      CODE     ---       #64
      00FF7195H   LINE      CODE     ---       #68
      00FF71A3H   LINE      CODE     ---       #69
      00FF71A3H   LINE      CODE     ---       #70
      ---         BLOCKEND  ---      ---       LVL=0

      00FF5D4EH   BLOCK     CODE     ---       LVL=0
      00FF5D4EH   LINE      CODE     ---       #72
      00FF5D4EH   LINE      CODE     ---       #74
      00FF5D5AH   LINE      CODE     ---       #75
      00FF5D8BH   LINE      CODE     ---       #77
      00FF5D9AH   LINE      CODE     ---       #78
      00FF5D9CH   LINE      CODE     ---       #81
      00FF5DB4H   LINE      CODE     ---       #82
L251 LINKER/LOCATER V4.66.93.0                                                        01/04/2022  17:06:11  PAGE 108


      00FF5DB8H   LINE      CODE     ---       #83
      00FF5DC0H   LINE      CODE     ---       #84
      00FF5DC0H   LINE      CODE     ---       #85
      ---         BLOCKEND  ---      ---       LVL=0

      00FF6C7FH   BLOCK     CODE     ---       LVL=0
      00FF6C81H   BLOCK     CODE     NEAR LAB  LVL=1
      WR12        REGSYM    ---      WORD      aDataLen
      WR14        REGSYM    ---      WORD      mDataLen
      ---         BLOCKEND  ---      ---       LVL=1
      00FF6C7FH   LINE      CODE     ---       #88
      00FF6C81H   LINE      CODE     ---       #89
      00FF6C81H   LINE      CODE     ---       #92
      00FF6C90H   LINE      CODE     ---       #94
      00FF6C92H   LINE      CODE     ---       #95
      00FF6C96H   LINE      CODE     ---       #96
      00FF6C98H   LINE      CODE     ---       #99
      00FF6C9CH   LINE      CODE     ---       #100
      00FF6CA0H   LINE      CODE     ---       #101
      00FF6CA6H   LINE      CODE     ---       #102
      00FF6CAEH   LINE      CODE     ---       #103
      00FF6CB4H   LINE      CODE     ---       #104
      00FF6CBAH   LINE      CODE     ---       #105
      00FF6CBAH   LINE      CODE     ---       #107
      00FF6CCCH   LINE      CODE     ---       #108
      ---         BLOCKEND  ---      ---       LVL=0

      00FF4C36H   BLOCK     CODE     ---       LVL=0
      REG=6       REGSYM    ---      ---       pbuf
      WR14        REGSYM    ---      WORD      len
      0000AD2FH   SYMBOL    EDATA    BYTE      dataType
      00FF4C40H   BLOCK     CODE     NEAR LAB  LVL=1
      0000AD30H   SYMBOL    EDATA    BYTE      idx
      ---         BLOCKEND  ---      ---       LVL=1
      00FF4C36H   LINE      CODE     ---       #110
      00FF4C40H   LINE      CODE     ---       #111
      00FF4C40H   LINE      CODE     ---       #114
      00FF4C46H   LINE      CODE     ---       #117
      00FF4C49H   LINE      CODE     ---       #118
      00FF4C7FH   LINE      CODE     ---       #119
      00FF4C87H   LINE      CODE     ---       #120
      00FF4CA0H   LINE      CODE     ---       #121
      00FF4CA4H   LINE      CODE     ---       #122
      00FF4CA4H   LINE      CODE     ---       #123
      00FF4CADH   LINE      CODE     ---       #125
      00FF4CC7H   LINE      CODE     ---       #126
      00FF4CCBH   LINE      CODE     ---       #127
      00FF4CCBH   LINE      CODE     ---       #132
      00FF4CCCH   LINE      CODE     ---       #133
      ---         BLOCKEND  ---      ---       LVL=0

      00FF49C1H   BLOCK     CODE     ---       LVL=0
      WR2         REGSYM    ---      WORD      txTarget
      WR4         REGSYM    ---      WORD      txStepSize
      R14         REGSYM    ---      BYTE      pktType
      R15         REGSYM    ---      BYTE      pktPhrType
      00FF49C1H   LINE      CODE     ---       #135
      00FF49C9H   LINE      CODE     ---       #137
      00FF49CEH   LINE      CODE     ---       #138
      00FF49D4H   LINE      CODE     ---       #139
      00FF49D8H   LINE      CODE     ---       #140
      00FF49DCH   LINE      CODE     ---       #141
      00FF49E2H   LINE      CODE     ---       #142
      00FF49E7H   LINE      CODE     ---       #143
      00FF49EEH   LINE      CODE     ---       #144
L251 LINKER/LOCATER V4.66.93.0                                                        01/04/2022  17:06:11  PAGE 109


      00FF49F2H   LINE      CODE     ---       #145
      00FF49F8H   LINE      CODE     ---       #146
      00FF49FCH   LINE      CODE     ---       #149
      00FF4A04H   LINE      CODE     ---       #150
      00FF4A38H   LINE      CODE     ---       #151
      00FF4A47H   LINE      CODE     ---       #152
      00FF4A56H   LINE      CODE     ---       #155
      00FF4A5DH   LINE      CODE     ---       #156
      ---         BLOCKEND  ---      ---       LVL=0

      00FF169FH   BLOCK     CODE     ---       LVL=0
      WR6         REGSYM    ---      WORD      macFunEventQueue
      R11         REGSYM    ---      BYTE      retValue
      00FF1833H   BLOCK     CODE     NEAR LAB  LVL=1
      0000AD03H   SYMBOL    EDATA    ---       ackContent
      ---         BLOCKEND  ---      ---       LVL=1
      00FF169FH   LINE      CODE     ---       #158
      00FF169FH   LINE      CODE     ---       #159
      00FF169FH   LINE      CODE     ---       #160
      00FF169FH   LINE      CODE     ---       #164
      00FF16ABH   LINE      CODE     ---       #166
      00FF16ABH   LINE      CODE     ---       #167
      00FF16ABH   LINE      CODE     ---       #170
      00FF16D2H   LINE      CODE     ---       #172
      00FF16D2H   LINE      CODE     ---       #174
      00FF16D5H   LINE      CODE     ---       #176
      00FF16E5H   LINE      CODE     ---       #180
      00FF16E8H   LINE      CODE     ---       #184
      00FF16E8H   LINE      CODE     ---       #185
      00FF16EBH   LINE      CODE     ---       #189
      00FF1715H   LINE      CODE     ---       #192
      00FF171CH   LINE      CODE     ---       #195
      00FF1722H   LINE      CODE     ---       #198
      00FF1725H   LINE      CODE     ---       #201
      00FF173BH   LINE      CODE     ---       #203
      00FF173DH   LINE      CODE     ---       #206
      00FF1741H   LINE      CODE     ---       #207
      00FF1744H   LINE      CODE     ---       #210
      00FF174AH   LINE      CODE     ---       #212
      00FF174FH   LINE      CODE     ---       #230
      00FF174FH   LINE      CODE     ---       #231
      00FF1751H   LINE      CODE     ---       #232
      00FF1757H   LINE      CODE     ---       #234
      00FF175CH   LINE      CODE     ---       #237
      00FF1761H   LINE      CODE     ---       #238
      00FF1763H   LINE      CODE     ---       #239
      00FF176FH   LINE      CODE     ---       #242
      00FF1773H   LINE      CODE     ---       #243
      00FF1773H   LINE      CODE     ---       #246
      00FF1777H   LINE      CODE     ---       #247
      00FF1777H   LINE      CODE     ---       #248
      00FF1777H   LINE      CODE     ---       #249
      00FF177AH   LINE      CODE     ---       #251
      00FF177AH   LINE      CODE     ---       #252
      00FF177DH   LINE      CODE     ---       #253
      00FF1786H   LINE      CODE     ---       #256
      00FF1789H   LINE      CODE     ---       #259
      00FF1797H   LINE      CODE     ---       #260
      00FF179BH   LINE      CODE     ---       #262
      00FF17A1H   LINE      CODE     ---       #265
      00FF17A7H   LINE      CODE     ---       #268
      00FF17AEH   LINE      CODE     ---       #271
      00FF17C4H   LINE      CODE     ---       #272
      00FF17C4H   LINE      CODE     ---       #275
      00FF17CEH   LINE      CODE     ---       #278
L251 LINKER/LOCATER V4.66.93.0                                                        01/04/2022  17:06:11  PAGE 110


      00FF17DBH   LINE      CODE     ---       #281
      00FF17DEH   LINE      CODE     ---       #284
      00FF17E4H   LINE      CODE     ---       #285
      00FF17EBH   LINE      CODE     ---       #287
      00FF17EFH   LINE      CODE     ---       #288
      00FF17EFH   LINE      CODE     ---       #289
      00FF17F2H   LINE      CODE     ---       #291
      00FF17F2H   LINE      CODE     ---       #292
      00FF17F5H   LINE      CODE     ---       #293
      00FF17FEH   LINE      CODE     ---       #296
      00FF1805H   LINE      CODE     ---       #299
      00FF1813H   LINE      CODE     ---       #300
      00FF1817H   LINE      CODE     ---       #304
      00FF1824H   LINE      CODE     ---       #306
      00FF182EH   LINE      CODE     ---       #307
      00FF1831H   LINE      CODE     ---       #308
      00FF1833H   LINE      CODE     ---       #310
      00FF1833H   LINE      CODE     ---       #314
      00FF1843H   LINE      CODE     ---       #315
      00FF1853H   LINE      CODE     ---       #317
      00FF185DH   LINE      CODE     ---       #318
      00FF1860H   LINE      CODE     ---       #319
      00FF1862H   LINE      CODE     ---       #322
      00FF186CH   LINE      CODE     ---       #323
      00FF186FH   LINE      CODE     ---       #324
      00FF186FH   LINE      CODE     ---       #325
      00FF186FH   LINE      CODE     ---       #329
      00FF1876H   LINE      CODE     ---       #331
      00FF187CH   LINE      CODE     ---       #334
      00FF1880H   LINE      CODE     ---       #335
      00FF1882H   LINE      CODE     ---       #336
      00FF1888H   LINE      CODE     ---       #339
      00FF188FH   LINE      CODE     ---       #341
      00FF1892H   LINE      CODE     ---       #344
      00FF1895H   LINE      CODE     ---       #348
      00FF189BH   LINE      CODE     ---       #351
      00FF189FH   LINE      CODE     ---       #352
      00FF189FH   LINE      CODE     ---       #353
      00FF18A1H   LINE      CODE     ---       #355
      00FF18A1H   LINE      CODE     ---       #357
      00FF18A4H   LINE      CODE     ---       #362
      00FF18ACH   LINE      CODE     ---       #363
      00FF18AEH   LINE      CODE     ---       #365
      00FF18AEH   LINE      CODE     ---       #367
      00FF18B1H   LINE      CODE     ---       #376
      00FF18B1H   LINE      CODE     ---       #378
      00FF18B1H   LINE      CODE     ---       #379
      00FF18B1H   LINE      CODE     ---       #380
      00FF18B1H   LINE      CODE     ---       #382
      00FF18B4H   LINE      CODE     ---       #383
      ---         BLOCKEND  ---      ---       LVL=0

      ---         MODULE    ---      ---       mac_DtmRx

      ---         MODULE    ---      ---       mac_DtmTx

      ---         MODULE    ---      ---       msg_ctrl
      00FF8562H   PUBLIC    CODE     ---       MSG_HdlrInit
      00FF6F2BH   PUBLIC    CODE     ---       MSG_Hdlr
      00FF7090H   PUBLIC    CODE     ---       MSG_Isr?_
      00FF84A7H   PUBLIC    CODE     ---       MSG_Idle
      00FF865FH   PUBLIC    CODE     ---       MSG_OutMsgForceHandle
      00FF882DH   PUBLIC    CODE     ---       MSG_OutStateSet
      00FF8670H   PUBLIC    CODE     ---       MSG_EventClr
      00FF6483H   PUBLIC    CODE     ---       MSG_InMsgProc
L251 LINKER/LOCATER V4.66.93.0                                                        01/04/2022  17:06:11  PAGE 111


      00FF7D50H   PUBLIC    CODE     ---       MSG_OutMsgToBmu
      00FF7BBDH   PUBLIC    CODE     ---       MSG_OutMsgProc
      0000ACE6H   PUBLIC    EDATA    ---       sMsgCtrl
      000000A8H.7 SFRSYM    DATA     BIT       EA

      00FF882DH   BLOCK     CODE     ---       LVL=0
      WR6         REGSYM    ---      INT       outMsgState
      00FF882DH   LINE      CODE     ---       #67
      00FF882DH   LINE      CODE     ---       #71
      00FF882FH   LINE      CODE     ---       #72
      00FF8833H   LINE      CODE     ---       #73
      00FF8835H   LINE      CODE     ---       #74
      ---         BLOCKEND  ---      ---       LVL=0

      00FF8670H   BLOCK     CODE     ---       LVL=0
      WR6         REGSYM    ---      INT       inType
      00FF8670H   LINE      CODE     ---       #76
      00FF8670H   LINE      CODE     ---       #80
      00FF8672H   LINE      CODE     ---       #81
      00FF867EH   LINE      CODE     ---       #82
      00FF8680H   LINE      CODE     ---       #83
      ---         BLOCKEND  ---      ---       LVL=0

      00FF8562H   BLOCK     CODE     ---       LVL=0
      00FF8562H   LINE      CODE     ---       #88
      00FF8562H   LINE      CODE     ---       #91
      00FF8565H   LINE      CODE     ---       #94
      00FF856BH   LINE      CODE     ---       #95
      00FF856FH   LINE      CODE     ---       #96
      00FF8574H   LINE      CODE     ---       #97
      ---         BLOCKEND  ---      ---       LVL=0

      00FF6483H   BLOCK     CODE     ---       LVL=0
      00FF6487H   BLOCK     CODE     NEAR LAB  LVL=1
      R15         REGSYM    ---      BYTE      qIdx
      REG=6       REGSYM    ---      ---       pQPayload
      REG=6       REGSYM    ---      ---       pRuciHead
      0000AD31H   SYMBOL    EDATA    WORD      cmdLength
      R11         REGSYM    ---      BYTE      retValue
      ---         BLOCKEND  ---      ---       LVL=1
      00FF6483H   LINE      CODE     ---       #192
      00FF6487H   LINE      CODE     ---       #193
      00FF6487H   LINE      CODE     ---       #201
      00FF648CH   LINE      CODE     ---       #202
      00FF6491H   LINE      CODE     ---       #205
      00FF6499H   LINE      CODE     ---       #206
      00FF64A2H   LINE      CODE     ---       #207
      00FF64A5H   LINE      CODE     ---       #210
      00FF64A5H   LINE      CODE     ---       #211
      00FF64B7H   LINE      CODE     ---       #212
      00FF64CBH   LINE      CODE     ---       #215
      00FF64CBH   LINE      CODE     ---       #216
      00FF64CBH   LINE      CODE     ---       #217
      00FF64CDH   LINE      CODE     ---       #221
      00FF64CDH   LINE      CODE     ---       #222
      00FF64CFH   LINE      CODE     ---       #223
      00FF64D1H   LINE      CODE     ---       #227
      00FF64D1H   LINE      CODE     ---       #228
      00FF64D1H   LINE      CODE     ---       #232
      00FF64DEH   LINE      CODE     ---       #234
      00FF64E0H   LINE      CODE     ---       #237
      00FF64E0H   LINE      CODE     ---       #238
      00FF64E4H   LINE      CODE     ---       #239
      00FF64E4H   LINE      CODE     ---       #240
      00FF64E4H   LINE      CODE     ---       #241
L251 LINKER/LOCATER V4.66.93.0                                                        01/04/2022  17:06:11  PAGE 112


      ---         BLOCKEND  ---      ---       LVL=0

      00FF7D50H   BLOCK     CODE     ---       LVL=0
      00FF7D52H   BLOCK     CODE     NEAR LAB  LVL=1
      REG=7       REGSYM    ---      ---       pQPayload
      WR4         REGSYM    ---      WORD      msgLength
      R15         REGSYM    ---      BYTE      retValue
      ---         BLOCKEND  ---      ---       LVL=1
      00FF7D50H   LINE      CODE     ---       #244
      00FF7D52H   LINE      CODE     ---       #245
      00FF7D52H   LINE      CODE     ---       #258
      00FF7D5BH   LINE      CODE     ---       #262
      00FF7D64H   LINE      CODE     ---       #299
      00FF7D6BH   LINE      CODE     ---       #301
      00FF7D72H   LINE      CODE     ---       #304
      00FF7D77H   LINE      CODE     ---       #305
      ---         BLOCKEND  ---      ---       LVL=0

      00FF7BBDH   BLOCK     CODE     ---       LVL=0
      00FF7BBDH   LINE      CODE     ---       #308
      00FF7BBDH   LINE      CODE     ---       #310
      00FF7BCFH   LINE      CODE     ---       #312
      00FF7BCFH   LINE      CODE     ---       #314
      00FF7BD4H   LINE      CODE     ---       #316
      00FF7BD4H   LINE      CODE     ---       #319
      00FF7BDDH   LINE      CODE     ---       #320
      00FF7BDDH   LINE      CODE     ---       #323
      00FF7BE4H   LINE      CODE     ---       #326
      00FF7BE7H   LINE      CODE     ---       #328
      00FF7BE7H   LINE      CODE     ---       #330
      00FF7BE7H   LINE      CODE     ---       #333
      00FF7BE7H   LINE      CODE     ---       #335
      00FF7BE7H   LINE      CODE     ---       #336
      00FF7BEBH   LINE      CODE     ---       #337
      00FF7BEBH   LINE      CODE     ---       #338
      00FF7BEBH   LINE      CODE     ---       #339
      ---         BLOCKEND  ---      ---       LVL=0

      00FF6F2BH   BLOCK     CODE     ---       LVL=0
      00FF6F4CH   BLOCK     CODE     NEAR LAB  LVL=1
      R10         REGSYM    ---      BYTE      regValue
      ---         BLOCKEND  ---      ---       LVL=1
      00FF6F2BH   LINE      CODE     ---       #341
      00FF6F2BH   LINE      CODE     ---       #367
      00FF6F2EH   LINE      CODE     ---       #370
      00FF6F38H   LINE      CODE     ---       #373
      00FF6F3FH   LINE      CODE     ---       #376
      00FF6F42H   LINE      CODE     ---       #377
      00FF6F42H   LINE      CODE     ---       #380
      00FF6F4CH   LINE      CODE     ---       #381
      00FF6F4CH   LINE      CODE     ---       #384
      00FF6F5CH   LINE      CODE     ---       #385
      00FF6F6CH   LINE      CODE     ---       #388
      00FF6F73H   LINE      CODE     ---       #389
      ---         BLOCKEND  ---      ---       LVL=0

      00FF7090H   BLOCK     CODE     ---       LVL=0
      R15         REGSYM    ---      BYTE      statusBmu
      00FF7090H   LINE      CODE     ---       #397
      00FF7094H   LINE      CODE     ---       #402
      00FF7097H   LINE      CODE     ---       #403
      00FF70A2H   LINE      CODE     ---       #406
      00FF70A7H   LINE      CODE     ---       #407
      00FF70AFH   LINE      CODE     ---       #410
      00FF70B4H   LINE      CODE     ---       #418
L251 LINKER/LOCATER V4.66.93.0                                                        01/04/2022  17:06:11  PAGE 113


      00FF70BFH   LINE      CODE     ---       #419
      00FF70C6H   LINE      CODE     ---       #421
      00FF70C6H   LINE      CODE     ---       #424
      00FF70D3H   LINE      CODE     ---       #437
      ---         BLOCKEND  ---      ---       LVL=0

      00FF84A7H   BLOCK     CODE     ---       LVL=0
      00FF84A7H   LINE      CODE     ---       #439
      00FF84A7H   LINE      CODE     ---       #442
      00FF84B8H   LINE      CODE     ---       #443
      00FF84BBH   LINE      CODE     ---       #445
      00FF84BCH   LINE      CODE     ---       #446
      ---         BLOCKEND  ---      ---       LVL=0

      00FF865FH   BLOCK     CODE     ---       LVL=0
      00FF8661H   BLOCK     CODE     NEAR LAB  LVL=1
      R15         REGSYM    ---      BYTE      msgState
      ---         BLOCKEND  ---      ---       LVL=1
      00FF865FH   LINE      CODE     ---       #448
      00FF8661H   LINE      CODE     ---       #449
      00FF8661H   LINE      CODE     ---       #453
      00FF8663H   LINE      CODE     ---       #454
      00FF8666H   LINE      CODE     ---       #455
      00FF866DH   LINE      CODE     ---       #456
      ---         BLOCKEND  ---      ---       LVL=0

      ---         MODULE    ---      ---       hal
      00FF8575H   PUBLIC    CODE     ---       HAL_IsBleHw
      00FF84D2H   PUBLIC    CODE     ---       HAL_IsWisunHw
      00FF84E7H   PUBLIC    CODE     ---       HAL_IsZigbeeHw
      00FF8588H   PUBLIC    CODE     ---       HAL_IsSubgRf
      00FF84FCH   PUBLIC    CODE     ---       HAL_Is2gRf
      00FF8859H   PUBLIC    CODE     ---       HAL_HwModeGet
      00FF87B8H   PUBLIC    CODE     ---       HAL_RfBandGet
      00FF87EBH   PUBLIC    CODE     ---       HAL_ClkModeGet
      00FF726DH   PUBLIC    CODE     ---       HAL_ClkModeSet
      00FF1FC6H   PUBLIC    CODE     ---       HAL_HwModeInit
      00FF79D5H   PUBLIC    CODE     ---       HAL_Watchdog
      00FF5F85H   PUBLIC    CODE     ---       HAL_PktTypeSet

      00FF5F85H   BLOCK     CODE     ---       LVL=0
      R10         REGSYM    ---      BYTE      regValue
      00FF5F85H   LINE      CODE     ---       #32
      00FF5F85H   LINE      CODE     ---       #33
      00FF5F85H   LINE      CODE     ---       #36
      00FF5F92H   LINE      CODE     ---       #37
      00FF5F97H   LINE      CODE     ---       #38
      00FF5F9DH   LINE      CODE     ---       #39
      00FF5FA2H   LINE      CODE     ---       #41
      00FF5FA4H   LINE      CODE     ---       #42
      00FF5FBEH   LINE      CODE     ---       #43
      00FF5FD9H   LINE      CODE     ---       #45
      00FF5FDDH   LINE      CODE     ---       #46
      00FF5FE8H   LINE      CODE     ---       #48
      00FF5FF4H   LINE      CODE     ---       #49
      ---         BLOCKEND  ---      ---       LVL=0

      00FF8575H   BLOCK     CODE     ---       LVL=0
      00FF8575H   LINE      CODE     ---       #55
      00FF8575H   LINE      CODE     ---       #57
      00FF8587H   LINE      CODE     ---       #58
      ---         BLOCKEND  ---      ---       LVL=0

      00FF84D2H   BLOCK     CODE     ---       LVL=0
      00FF84D2H   LINE      CODE     ---       #62
L251 LINKER/LOCATER V4.66.93.0                                                        01/04/2022  17:06:11  PAGE 114


      00FF84D2H   LINE      CODE     ---       #64
      00FF84E6H   LINE      CODE     ---       #65
      ---         BLOCKEND  ---      ---       LVL=0

      00FF84E7H   BLOCK     CODE     ---       LVL=0
      00FF84E7H   LINE      CODE     ---       #69
      00FF84E7H   LINE      CODE     ---       #71
      00FF84FBH   LINE      CODE     ---       #72
      ---         BLOCKEND  ---      ---       LVL=0

      00FF8588H   BLOCK     CODE     ---       LVL=0
      00FF8588H   LINE      CODE     ---       #83
      00FF8588H   LINE      CODE     ---       #85
      00FF859AH   LINE      CODE     ---       #86
      ---         BLOCKEND  ---      ---       LVL=0

      00FF84FCH   BLOCK     CODE     ---       LVL=0
      00FF84FCH   LINE      CODE     ---       #90
      00FF84FCH   LINE      CODE     ---       #92
      00FF8510H   LINE      CODE     ---       #93
      ---         BLOCKEND  ---      ---       LVL=0

      00FF726DH   BLOCK     CODE     ---       LVL=0
      WR6         REGSYM    ---      INT       clkMode
      00FF726DH   LINE      CODE     ---       #96
      00FF726DH   LINE      CODE     ---       #103
      00FF7277H   LINE      CODE     ---       #106
      00FF7277H   LINE      CODE     ---       #107
      00FF7283H   LINE      CODE     ---       #108
      00FF728FH   LINE      CODE     ---       #109
      00FF7290H   LINE      CODE     ---       #113
      00FF7290H   LINE      CODE     ---       #114
      00FF729CH   LINE      CODE     ---       #115
      00FF72A8H   LINE      CODE     ---       #116
      00FF72AAH   LINE      CODE     ---       #117
      00FF72ACH   LINE      CODE     ---       #120
      00FF72ACH   LINE      CODE     ---       #121
      00FF72B0H   LINE      CODE     ---       #122
      00FF72B0H   LINE      CODE     ---       #124
      ---         BLOCKEND  ---      ---       LVL=0

      00FF8859H   BLOCK     CODE     ---       LVL=0
      00FF8859H   LINE      CODE     ---       #126
      00FF8859H   LINE      CODE     ---       #128
      00FF8860H   LINE      CODE     ---       #148
      ---         BLOCKEND  ---      ---       LVL=0

      00FF87B8H   BLOCK     CODE     ---       LVL=0
      00FF87B8H   LINE      CODE     ---       #150
      00FF87B8H   LINE      CODE     ---       #152
      00FF87C4H   LINE      CODE     ---       #153
      ---         BLOCKEND  ---      ---       LVL=0

      00FF87EBH   BLOCK     CODE     ---       LVL=0
      00FF87EBH   LINE      CODE     ---       #155
      00FF87EBH   LINE      CODE     ---       #157
      00FF87F6H   LINE      CODE     ---       #158
      ---         BLOCKEND  ---      ---       LVL=0

      00FF1FC6H   BLOCK     CODE     ---       LVL=0
      0000AD07H   SYMBOL    EDATA    INT       halType
      WR12        REGSYM    ---      INT       rfBand
      WR14        REGSYM    ---      INT       clkMode
      00FF1FD0H   BLOCK     CODE     NEAR LAB  LVL=1
      WR14        REGSYM    ---      INT       clkModeTmp
L251 LINKER/LOCATER V4.66.93.0                                                        01/04/2022  17:06:11  PAGE 115


      0000AD09H   SYMBOL    EDATA    INT       clkModeCurrent
      WR12        REGSYM    ---      INT       rfBandTemp
      ---         BLOCKEND  ---      ---       LVL=1
      00FF1FC6H   LINE      CODE     ---       #265
      00FF1FD0H   LINE      CODE     ---       #271
      00FF1FD0H   LINE      CODE     ---       #279
      00FF1FD3H   LINE      CODE     ---       #283
      00FF1FDAH   LINE      CODE     ---       #287
      00FF1FE1H   LINE      CODE     ---       #288
      00FF1FF3H   LINE      CODE     ---       #289
      00FF2005H   LINE      CODE     ---       #292
      00FF200CH   LINE      CODE     ---       #295
      00FF2011H   LINE      CODE     ---       #298
      00FF202BH   LINE      CODE     ---       #302
      00FF202EH   LINE      CODE     ---       #305
      00FF2038H   LINE      CODE     ---       #308
      00FF2038H   LINE      CODE     ---       #314
      00FF204CH   LINE      CODE     ---       #321
      00FF204EH   LINE      CODE     ---       #324
      00FF204EH   LINE      CODE     ---       #326
      00FF2066H   LINE      CODE     ---       #332
      00FF2066H   LINE      CODE     ---       #334
      00FF2066H   LINE      CODE     ---       #337
      00FF206CH   LINE      CODE     ---       #340
      00FF2072H   LINE      CODE     ---       #343
      00FF2078H   LINE      CODE     ---       #346
      00FF2087H   LINE      CODE     ---       #349
      00FF20A6H   LINE      CODE     ---       #353
      00FF20B7H   LINE      CODE     ---       #355
      00FF20C2H   LINE      CODE     ---       #356
      00FF20E1H   LINE      CODE     ---       #357
      00FF20ECH   LINE      CODE     ---       #358
      00FF210BH   LINE      CODE     ---       #359
      00FF210BH   LINE      CODE     ---       #363
      00FF2118H   LINE      CODE     ---       #367
      00FF2123H   LINE      CODE     ---       #371
      00FF212EH   LINE      CODE     ---       #374
      00FF213BH   LINE      CODE     ---       #377
      00FF2143H   LINE      CODE     ---       #381
      00FF214BH   LINE      CODE     ---       #382
      00FF2150H   LINE      CODE     ---       #418
      00FF2150H   LINE      CODE     ---       #420
      ---         BLOCKEND  ---      ---       LVL=0

      00FF79D5H   BLOCK     CODE     ---       LVL=0
      00FF79D7H   BLOCK     CODE     NEAR LAB  LVL=1
      DR12        REGSYM    ---      DWORD     timeStamp
      ---         BLOCKEND  ---      ---       LVL=1
      00FF79D5H   LINE      CODE     ---       #422
      00FF79D7H   LINE      CODE     ---       #423
      00FF79D7H   LINE      CODE     ---       #427
      00FF79DCH   LINE      CODE     ---       #428
      00FF79F5H   LINE      CODE     ---       #429
      00FF79F5H   LINE      CODE     ---       #430
      00FF79F9H   LINE      CODE     ---       #433
      00FF79FFH   LINE      CODE     ---       #434
      00FF7A05H   LINE      CODE     ---       #435
      ---         BLOCKEND  ---      ---       LVL=0

      ---         MODULE    ---      ---       hal_cfg
      00FFFB50H   PUBLIC    HCONST   ---       sHalFwCfg
      00FFFB5DH   PUBLIC    HCONST   ---       sHalHwCfgBLE
      00FFFB93H   PUBLIC    HCONST   ---       sHalHwCfgWisun
      00FFFBC9H   PUBLIC    HCONST   ---       sHalHwCfgZigbee

L251 LINKER/LOCATER V4.66.93.0                                                        01/04/2022  17:06:11  PAGE 116


      ---         MODULE    ---      ---       hal_mac
      00FF7FDBH   PUBLIC    CODE     ---       HALMAC_WhitenSet
      00FF83B1H   PUBLIC    CODE     ---       HALMAC_CrcInitDftGet
      00FF7438H   PUBLIC    CODE     ---       HALMAC_CrcSet
      00FF82D9H   PUBLIC    CODE     ---       HALMAC_TxPreambleSet
      00FF82F2H   PUBLIC    CODE     ---       HALMAC_RxPreambleSet
      00FF8021H   PUBLIC    CODE     ---       HALMAC_TxSfdSet
      00FF3497H   PUBLIC    CODE     ---       HALMAC_RxSfdSet
      00FF7DF5H   PUBLIC    CODE     ---       HALMAC_PhrSet
      00FF8511H   PUBLIC    CODE     ---       HALMAC_RxMhrRptLenSet
      00FF7DCCH   PUBLIC    CODE     ---       HALMAC_RxMaxPktLenSet
      00FF7A9EH   PUBLIC    CODE     ---       HALMAC_PktBitEndianSet
      00FF8836H   PUBLIC    CODE     ---       HALMAC_WhitenDftGet
      00FF883FH   PUBLIC    CODE     ---       HALMAC_WhitenInitDftGet
      00FF830BH   PUBLIC    CODE     ---       HALMAC_CrcLenCfgGet
      00FF8043H   PUBLIC    CODE     ---       HALMAC_PhrLenCfgGet
      00FF83C8H   PUBLIC    CODE     ---       HALMAC_SfdDftGet
      00FF4FADH   PUBLIC    CODE     ---       HALMAC_RxPayloadLenGet
      00FF8848H   PUBLIC    CODE     ---       HALMAC_MaxPayloadDftGet
      00FF7CFAH   PUBLIC    CODE     ---       HALMAC_MaxPayloadLenGet
      00FF5B77H   PUBLIC    CODE     ---       HALMAC_TxTypeSet

      00FF7FDBH   BLOCK     CODE     ---       LVL=0
      WR6         REGSYM    ---      INT       whitenType
      R10         REGSYM    ---      BYTE      initValue
      00FF7FDBH   LINE      CODE     ---       #23
      00FF7FDDH   LINE      CODE     ---       #29
      00FF7FF6H   LINE      CODE     ---       #32
      00FF7FFDH   LINE      CODE     ---       #33
      ---         BLOCKEND  ---      ---       LVL=0

      00FF7438H   BLOCK     CODE     ---       LVL=0
      WR2         REGSYM    ---      INT       crcType
      DR28        REGSYM    ---      DWORD     initValue
      00FF7438H   LINE      CODE     ---       #35
      00FF743CH   LINE      CODE     ---       #41
      00FF7455H   LINE      CODE     ---       #44
      00FF7459H   LINE      CODE     ---       #45
      00FF746CH   LINE      CODE     ---       #47
      00FF7477H   LINE      CODE     ---       #48
      ---         BLOCKEND  ---      ---       LVL=0

      00FF82D9H   BLOCK     CODE     ---       LVL=0
      WR6         REGSYM    ---      INT       preambleType
      00FF82D9H   LINE      CODE     ---       #51
      00FF82D9H   LINE      CODE     ---       #56
      00FF82F1H   LINE      CODE     ---       #57
      ---         BLOCKEND  ---      ---       LVL=0

      00FF82F2H   BLOCK     CODE     ---       LVL=0
      WR6         REGSYM    ---      INT       preambleType
      00FF82F2H   LINE      CODE     ---       #59
      00FF82F2H   LINE      CODE     ---       #64
      00FF830AH   LINE      CODE     ---       #65
      ---         BLOCKEND  ---      ---       LVL=0

      00FF8021H   BLOCK     CODE     ---       LVL=0
      WR6         REGSYM    ---      INT       sfdType
      DR0         REGSYM    ---      DWORD     sfdData
      00FF8021H   LINE      CODE     ---       #67
      00FF8021H   LINE      CODE     ---       #73
      00FF8037H   LINE      CODE     ---       #76
      00FF8042H   LINE      CODE     ---       #78
      ---         BLOCKEND  ---      ---       LVL=0

L251 LINKER/LOCATER V4.66.93.0                                                        01/04/2022  17:06:11  PAGE 117


      00FF3497H   BLOCK     CODE     ---       LVL=0
      WR2         REGSYM    ---      INT       sfdType
      DR28        REGSYM    ---      DWORD     sfdData
      00FF3497H   LINE      CODE     ---       #80
      00FF349BH   LINE      CODE     ---       #85
      00FF34B2H   LINE      CODE     ---       #89
      00FF34B2H   LINE      CODE     ---       #90
      00FF34B8H   LINE      CODE     ---       #92
      00FF34D1H   LINE      CODE     ---       #93
      00FF34E5H   LINE      CODE     ---       #94
      00FF34FBH   LINE      CODE     ---       #95
      00FF34FFH   LINE      CODE     ---       #96
      00FF3501H   LINE      CODE     ---       #99
      00FF351BH   LINE      CODE     ---       #100
      00FF352FH   LINE      CODE     ---       #101
      00FF3545H   LINE      CODE     ---       #102
      00FF3559H   LINE      CODE     ---       #103
      00FF3559H   LINE      CODE     ---       #107
      00FF3559H   LINE      CODE     ---       #109
      00FF3572H   LINE      CODE     ---       #110
      00FF357DH   LINE      CODE     ---       #111
      00FF357DH   LINE      CODE     ---       #114
      00FF357DH   LINE      CODE     ---       #115
      00FF357DH   LINE      CODE     ---       #116
      00FF357DH   LINE      CODE     ---       #117
      ---         BLOCKEND  ---      ---       LVL=0

      00FF7DF5H   BLOCK     CODE     ---       LVL=0
      WR6         REGSYM    ---      INT       phrType
      DR0         REGSYM    ---      DWORD     phrData
      00FF7DF5H   LINE      CODE     ---       #120
      00FF7DF5H   LINE      CODE     ---       #127
      00FF7E0EH   LINE      CODE     ---       #133
      00FF7E1CH   LINE      CODE     ---       #134
      ---         BLOCKEND  ---      ---       LVL=0

      00FF8511H   BLOCK     CODE     ---       LVL=0
      WR6         REGSYM    ---      WORD      rptLen
      00FF8511H   LINE      CODE     ---       #136
      00FF8511H   LINE      CODE     ---       #140
      00FF8525H   LINE      CODE     ---       #141
      ---         BLOCKEND  ---      ---       LVL=0

      00FF7DCCH   BLOCK     CODE     ---       LVL=0
      WR2         REGSYM    ---      WORD      pktLen
      00FF7DCEH   BLOCK     CODE     NEAR LAB  LVL=1
      DR4         REGSYM    ---      DWORD     regVal
      ---         BLOCKEND  ---      ---       LVL=1
      00FF7DCCH   LINE      CODE     ---       #144
      00FF7DCEH   LINE      CODE     ---       #147
      00FF7DCEH   LINE      CODE     ---       #156
      00FF7DE4H   LINE      CODE     ---       #157
      00FF7DECH   LINE      CODE     ---       #158
      00FF7DF4H   LINE      CODE     ---       #159
      ---         BLOCKEND  ---      ---       LVL=0

      00FF7A9EH   BLOCK     CODE     ---       LVL=0
      WR2         REGSYM    ---      INT       bitEndian
      00FF7AA0H   BLOCK     CODE     NEAR LAB  LVL=1
      DR4         REGSYM    ---      DWORD     regVal
      ---         BLOCKEND  ---      ---       LVL=1
      00FF7A9EH   LINE      CODE     ---       #162
      00FF7AA0H   LINE      CODE     ---       #165
      00FF7AA0H   LINE      CODE     ---       #174
      00FF7AB5H   LINE      CODE     ---       #175
L251 LINKER/LOCATER V4.66.93.0                                                        01/04/2022  17:06:11  PAGE 118


      00FF7AC6H   LINE      CODE     ---       #176
      00FF7ACEH   LINE      CODE     ---       #177
      ---         BLOCKEND  ---      ---       LVL=0

      00FF8836H   BLOCK     CODE     ---       LVL=0
      00FF8836H   LINE      CODE     ---       #180
      00FF8836H   LINE      CODE     ---       #182
      00FF883EH   LINE      CODE     ---       #183
      ---         BLOCKEND  ---      ---       LVL=0

      00FF883FH   BLOCK     CODE     ---       LVL=0
      00FF883FH   LINE      CODE     ---       #185
      00FF883FH   LINE      CODE     ---       #188
      00FF8847H   LINE      CODE     ---       #189
      ---         BLOCKEND  ---      ---       LVL=0

      00FF83B1H   BLOCK     CODE     ---       LVL=0
      WR6         REGSYM    ---      INT       crcType
      00FF83B1H   LINE      CODE     ---       #191
      00FF83B1H   LINE      CODE     ---       #196
      00FF83C7H   LINE      CODE     ---       #197
      ---         BLOCKEND  ---      ---       LVL=0

      00FF830BH   BLOCK     CODE     ---       LVL=0
      R7          REGSYM    ---      BYTE      regValue
      00FF830BH   LINE      CODE     ---       #199
      00FF830BH   LINE      CODE     ---       #200
      00FF830BH   LINE      CODE     ---       #204
      00FF8318H   LINE      CODE     ---       #205
      00FF8323H   LINE      CODE     ---       #206
      ---         BLOCKEND  ---      ---       LVL=0

      00FF8043H   BLOCK     CODE     ---       LVL=0
      00FF8043H   LINE      CODE     ---       #208
      00FF8043H   LINE      CODE     ---       #212
      00FF804EH   LINE      CODE     ---       #213
      00FF8051H   LINE      CODE     ---       #217
      00FF8057H   LINE      CODE     ---       #218
      00FF805AH   LINE      CODE     ---       #222
      00FF8060H   LINE      CODE     ---       #223
      00FF8063H   LINE      CODE     ---       #236
      00FF8064H   LINE      CODE     ---       #237
      ---         BLOCKEND  ---      ---       LVL=0

      00FF4FADH   BLOCK     CODE     ---       LVL=0
      00FF4FADH   LINE      CODE     ---       #251
      00FF4FADH   LINE      CODE     ---       #253
      00FF4FC0H   LINE      CODE     ---       #256
      00FF4FC0H   LINE      CODE     ---       #257
      00FF4FE4H   LINE      CODE     ---       #261
      00FF4FE4H   LINE      CODE     ---       #262
      00FF500EH   LINE      CODE     ---       #266
      00FF500EH   LINE      CODE     ---       #267
      00FF5039H   LINE      CODE     ---       #275
      00FF5039H   LINE      CODE     ---       #276
      00FF503BH   LINE      CODE     ---       #277
      00FF503BH   LINE      CODE     ---       #278
      ---         BLOCKEND  ---      ---       LVL=0

      00FF83C8H   BLOCK     CODE     ---       LVL=0
      WR6         REGSYM    ---      INT       sfdType
      00FF83C8H   LINE      CODE     ---       #280
      00FF83C8H   LINE      CODE     ---       #285
      00FF83DEH   LINE      CODE     ---       #286
      ---         BLOCKEND  ---      ---       LVL=0
L251 LINKER/LOCATER V4.66.93.0                                                        01/04/2022  17:06:11  PAGE 119



      00FF8848H   BLOCK     CODE     ---       LVL=0
      00FF8848H   LINE      CODE     ---       #288
      00FF8848H   LINE      CODE     ---       #291
      00FF8850H   LINE      CODE     ---       #292
      ---         BLOCKEND  ---      ---       LVL=0

      00FF7CFAH   BLOCK     CODE     ---       LVL=0
      00FF7CFAH   LINE      CODE     ---       #294
      00FF7CFAH   LINE      CODE     ---       #296
      00FF7D0DH   LINE      CODE     ---       #300
      00FF7D0DH   LINE      CODE     ---       #305
      00FF7D12H   LINE      CODE     ---       #310
      00FF7D12H   LINE      CODE     ---       #313
      00FF7D12H   LINE      CODE     ---       #315
      00FF7D22H   LINE      CODE     ---       #317
      00FF7D22H   LINE      CODE     ---       #319
      00FF7D24H   LINE      CODE     ---       #320
      ---         BLOCKEND  ---      ---       LVL=0

      00FF5B77H   BLOCK     CODE     ---       LVL=0
      WR6         REGSYM    ---      INT       type
      00FF5B77H   LINE      CODE     ---       #322
      00FF5B77H   LINE      CODE     ---       #324
      00FF5B83H   LINE      CODE     ---       #326
      00FF5B83H   LINE      CODE     ---       #328
      00FF5B8FH   LINE      CODE     ---       #329
      00FF5B91H   LINE      CODE     ---       #330
      00FF5B91H   LINE      CODE     ---       #331
      00FF5B91H   LINE      CODE     ---       #332
      00FF5B91H   LINE      CODE     ---       #333
      00FF5B93H   LINE      CODE     ---       #334
      00FF5B93H   LINE      CODE     ---       #336
      00FF5B9FH   LINE      CODE     ---       #337
      00FF5BA4H   LINE      CODE     ---       #338
      00FF5BB0H   LINE      CODE     ---       #339
      00FF5BB9H   LINE      CODE     ---       #340
      00FF5BC1H   LINE      CODE     ---       #341
      00FF5BC2H   LINE      CODE     ---       #342
      00FF5BC2H   LINE      CODE     ---       #344
      00FF5BCEH   LINE      CODE     ---       #345
      00FF5BD0H   LINE      CODE     ---       #346
      00FF5BD0H   LINE      CODE     ---       #347
      00FF5BD2H   LINE      CODE     ---       #348
      00FF5BD2H   LINE      CODE     ---       #350
      00FF5BDEH   LINE      CODE     ---       #351
      00FF5BE3H   LINE      CODE     ---       #352
      00FF5BEFH   LINE      CODE     ---       #353
      00FF5BEFH   LINE      CODE     ---       #354
      00FF5BEFH   LINE      CODE     ---       #355
      ---         BLOCKEND  ---      ---       LVL=0

      ---         MODULE    ---      ---       hal_para
      00FFF649H   PUBLIC    HCONST   ---       phyTabBpFir15Tap
      00FFF651H   PUBLIC    HCONST   ---       phyTabBpFir31Tap
      00FFF661H   PUBLIC    HCONST   ---       phyTabIfMap
      00FFF667H   PUBLIC    HCONST   ---       phyTabIfMapDclk
      00FFF66DH   PUBLIC    HCONST   ---       sHalHwPara
      00FFF6CBH   PUBLIC    HCONST   ---       sHalHwTab

      ---         MODULE    ---      ---       hal_phy
      00FF62E3H   PUBLIC    CODE     ---       HALPHY_DfeSet
      00FF1C64H   PUBLIC    CODE     ---       HALPHY_ParaSet
      00FF8125H   PUBLIC    CODE     ---       HALPHY_RxDisable
      00FF3B55H   PUBLIC    CODE     ---       HALPHY_RxEnable
L251 LINKER/LOCATER V4.66.93.0                                                        01/04/2022  17:06:11  PAGE 120


      00FF18B5H   PUBLIC    CODE     ---       HALPHY_TxEnable
      00FF8526H   PUBLIC    CODE     ---       HALPHY_PreamNumSet
      00FF0D25H   PUBLIC    CODE     ---       HALPHY_TxBwSet
      00FF047AH   PUBLIC    CODE     ---       HALPHY_RxBwSet
      00FF558EH   PUBLIC    CODE     ---       HALPHY_InputPwrGet
      00FF5DC1H   PUBLIC    CODE     ---       HALPHY_BleRxParaSet
      00FF71A3H   PUBLIC    CODE     ---       HALPHY_FskRxParaSet
      00FF80A7H   PUBLIC    CODE     ---       HALPHY_ModIdxSet

      00FF5DC1H   BLOCK     CODE     ---       LVL=0
      R11         REGSYM    ---      BYTE      detectionOffset
      R8          REGSYM    ---      BYTE      rxPreamBase
      R9          REGSYM    ---      BYTE      syncBitTh
      WR2         REGSYM    ---      WORD      syncCorrTh
      R10         REGSYM    ---      BYTE      trackBitTh
      WR0         REGSYM    ---      WORD      trackCorrTh
      00FF5DC1H   LINE      CODE     ---       #25
      00FF5DC9H   LINE      CODE     ---       #34
      00FF5DDCH   LINE      CODE     ---       #35
      00FF5DEFH   LINE      CODE     ---       #36
      00FF5E02H   LINE      CODE     ---       #37
      00FF5E10H   LINE      CODE     ---       #38
      00FF5E24H   LINE      CODE     ---       #39
      00FF5E32H   LINE      CODE     ---       #40
      ---         BLOCKEND  ---      ---       LVL=0

      00FF71A3H   BLOCK     CODE     ---       LVL=0
      R2          REGSYM    ---      BYTE      trackKp
      R3          REGSYM    ---      BYTE      trackKq
      R6          REGSYM    ---      BYTE      cfoEstAlphaIdx
      00FF71A3H   LINE      CODE     ---       #44
      00FF71A5H   LINE      CODE     ---       #50
      00FF71B9H   LINE      CODE     ---       #51
      00FF71CFH   LINE      CODE     ---       #52
      00FF71E6H   LINE      CODE     ---       #53
      ---         BLOCKEND  ---      ---       LVL=0

      00FF62E3H   BLOCK     CODE     ---       LVL=0
      00FF62E3H   LINE      CODE     ---       #59
      00FF62E3H   LINE      CODE     ---       #61
      00FF62F6H   LINE      CODE     ---       #65
      00FF62F6H   LINE      CODE     ---       #68
      00FF62F6H   LINE      CODE     ---       #71
      00FF6309H   LINE      CODE     ---       #73
      00FF6311H   LINE      CODE     ---       #74
      00FF6313H   LINE      CODE     ---       #78
      00FF6313H   LINE      CODE     ---       #80
      00FF6326H   LINE      CODE     ---       #82
      00FF6339H   LINE      CODE     ---       #83
      00FF6339H   LINE      CODE     ---       #94
      00FF6339H   LINE      CODE     ---       #98
      ---         BLOCKEND  ---      ---       LVL=0

      00FF1C64H   BLOCK     CODE     ---       LVL=0
      00FF1C64H   LINE      CODE     ---       #102
      00FF1C64H   LINE      CODE     ---       #105
      00FF1C80H   LINE      CODE     ---       #108
      00FF1C80H   LINE      CODE     ---       #111
      00FF1C91H   LINE      CODE     ---       #113
      00FF1CADH   LINE      CODE     ---       #114
      00FF1CC1H   LINE      CODE     ---       #115
      00FF1CD5H   LINE      CODE     ---       #116
      00FF1CF0H   LINE      CODE     ---       #117
      00FF1D05H   LINE      CODE     ---       #119
      00FF1D08H   LINE      CODE     ---       #123
L251 LINKER/LOCATER V4.66.93.0                                                        01/04/2022  17:06:11  PAGE 121


      00FF1D08H   LINE      CODE     ---       #124
      00FF1D22H   LINE      CODE     ---       #125
      00FF1D35H   LINE      CODE     ---       #126
      00FF1D38H   LINE      CODE     ---       #130
      00FF1D38H   LINE      CODE     ---       #131
      00FF1D52H   LINE      CODE     ---       #132
      00FF1D68H   LINE      CODE     ---       #133
      00FF1D7CH   LINE      CODE     ---       #134
      00FF1D92H   LINE      CODE     ---       #135
      00FF1DA6H   LINE      CODE     ---       #136
      00FF1DBAH   LINE      CODE     ---       #137
      00FF1DD0H   LINE      CODE     ---       #138
      00FF1DE7H   LINE      CODE     ---       #139
      00FF1DFFH   LINE      CODE     ---       #140
      00FF1E15H   LINE      CODE     ---       #141
      00FF1E15H   LINE      CODE     ---       #156
      00FF1E15H   LINE      CODE     ---       #157
      00FF1E15H   LINE      CODE     ---       #158
      00FF1E15H   LINE      CODE     ---       #159
      ---         BLOCKEND  ---      ---       LVL=0

      00FF8125H   BLOCK     CODE     ---       LVL=0
      00FF8125H   LINE      CODE     ---       #257
      00FF8125H   LINE      CODE     ---       #260
      00FF8133H   LINE      CODE     ---       #263
      00FF813BH   LINE      CODE     ---       #264
      00FF8143H   LINE      CODE     ---       #265
      ---         BLOCKEND  ---      ---       LVL=0

      00FF3B55H   BLOCK     CODE     ---       LVL=0
      00FF3B55H   LINE      CODE     ---       #267
      00FF3B55H   LINE      CODE     ---       #280
      00FF3B6BH   LINE      CODE     ---       #283
      00FF3B6BH   LINE      CODE     ---       #285
      00FF3B75H   LINE      CODE     ---       #286
      00FF3B7FH   LINE      CODE     ---       #289
      00FF3B96H   LINE      CODE     ---       #290
      00FF3BAEH   LINE      CODE     ---       #292
      00FF3BB2H   LINE      CODE     ---       #293
      00FF3BB4H   LINE      CODE     ---       #297
      00FF3BB4H   LINE      CODE     ---       #298
      00FF3BBEH   LINE      CODE     ---       #299
      00FF3BC7H   LINE      CODE     ---       #301
      00FF3BCFH   LINE      CODE     ---       #302
      00FF3BD1H   LINE      CODE     ---       #306
      00FF3BD1H   LINE      CODE     ---       #307
      00FF3BEBH   LINE      CODE     ---       #308
      00FF3BEBH   LINE      CODE     ---       #310
      00FF3BEBH   LINE      CODE     ---       #316
      00FF3BF7H   LINE      CODE     ---       #317
      00FF3C03H   LINE      CODE     ---       #319
      00FF3C08H   LINE      CODE     ---       #320
      00FF3C14H   LINE      CODE     ---       #324
      ---         BLOCKEND  ---      ---       LVL=0

      00FF18B5H   BLOCK     CODE     ---       LVL=0
      00FF18B9H   BLOCK     CODE     NEAR LAB  LVL=1
      0000AD0BH   SYMBOL    EDATA    ---       pPllCfg
      0000AD0DH   SYMBOL    EDATA    INT       modIdx
      WR12        REGSYM    ---      INT       dataBwIdx
      R15         REGSYM    ---      BYTE      opModeEn
      ---         BLOCKEND  ---      ---       LVL=1
      00FF18B5H   LINE      CODE     ---       #330
      00FF18B9H   LINE      CODE     ---       #331
      00FF18B9H   LINE      CODE     ---       #332
L251 LINKER/LOCATER V4.66.93.0                                                        01/04/2022  17:06:11  PAGE 122


      00FF18C5H   LINE      CODE     ---       #333
      00FF18CDH   LINE      CODE     ---       #335
      00FF18D0H   LINE      CODE     ---       #336
      00FF18D2H   LINE      CODE     ---       #351
      00FF18DFH   LINE      CODE     ---       #352
      00FF1904H   LINE      CODE     ---       #358
      00FF191DH   LINE      CODE     ---       #361
      00FF192BH   LINE      CODE     ---       #364
      00FF192BH   LINE      CODE     ---       #366
      00FF193CH   LINE      CODE     ---       #367
      00FF193CH   LINE      CODE     ---       #369
      00FF1980H   LINE      CODE     ---       #371
      00FF19A2H   LINE      CODE     ---       #372
      00FF19BFH   LINE      CODE     ---       #373
      00FF19D7H   LINE      CODE     ---       #374
      00FF19E9H   LINE      CODE     ---       #375
      00FF1A28H   LINE      CODE     ---       #376
      00FF1A2BH   LINE      CODE     ---       #377
      00FF1A2BH   LINE      CODE     ---       #380
      00FF1A2BH   LINE      CODE     ---       #383
      00FF1A2BH   LINE      CODE     ---       #385
      00FF1A2BH   LINE      CODE     ---       #387
      00FF1A2FH   LINE      CODE     ---       #390
      00FF1A3BH   LINE      CODE     ---       #391
      00FF1A3BH   LINE      CODE     ---       #399
      00FF1A52H   LINE      CODE     ---       #400
      00FF1A67H   LINE      CODE     ---       #402
      00FF1A7CH   LINE      CODE     ---       #403
      00FF1A8DH   LINE      CODE     ---       #407
      00FF1A94H   LINE      CODE     ---       #410
      00FF1A94H   LINE      CODE     ---       #411
      ---         BLOCKEND  ---      ---       LVL=0

      00FF80A7H   BLOCK     CODE     ---       LVL=0
      WR6         REGSYM    ---      INT       modIdx
      00FF80A7H   LINE      CODE     ---       #414
      00FF80A7H   LINE      CODE     ---       #419
      00FF80ABH   LINE      CODE     ---       #428
      00FF80B3H   LINE      CODE     ---       #429
      00FF80B5H   LINE      CODE     ---       #439
      00FF80C8H   LINE      CODE     ---       #440
      00FF80C8H   LINE      CODE     ---       #441
      ---         BLOCKEND  ---      ---       LVL=0

      00FF8526H   BLOCK     CODE     ---       LVL=0
      R7          REGSYM    ---      BYTE      preambleNum
      00FF8526H   LINE      CODE     ---       #445
      00FF8526H   LINE      CODE     ---       #449
      00FF853AH   LINE      CODE     ---       #450
      ---         BLOCKEND  ---      ---       LVL=0

      00FF0D25H   BLOCK     CODE     ---       LVL=0
      WR14        REGSYM    ---      INT       dataBw
      WR30        REGSYM    ---      INT       modIdx
      WR8         REGSYM    ---      INT       codingType
      R11         REGSYM    ---      BYTE      bAutoCfg
      00FF0D2DH   BLOCK     CODE     NEAR LAB  LVL=1
      0000AD33H   SYMBOL    EDATA    INT       dataBwEff
      WR12        REGSYM    ---      INT       dataBwIdx
      WR28        REGSYM    ---      INT       dataBwIdxDclk
      ---         BLOCKEND  ---      ---       LVL=1
      00FF0D25H   LINE      CODE     ---       #453
      00FF0D2DH   LINE      CODE     ---       #459
      00FF0D2DH   LINE      CODE     ---       #462
      00FF0D3FH   LINE      CODE     ---       #464
L251 LINKER/LOCATER V4.66.93.0                                                        01/04/2022  17:06:11  PAGE 123


      00FF0D45H   LINE      CODE     ---       #482
      00FF0D4AH   LINE      CODE     ---       #484
      00FF0D62H   LINE      CODE     ---       #487
      00FF0D62H   LINE      CODE     ---       #496
      00FF0D68H   LINE      CODE     ---       #497
      00FF0D72H   LINE      CODE     ---       #500
      00FF0D81H   LINE      CODE     ---       #502
      00FF0D84H   LINE      CODE     ---       #506
      00FF0D84H   LINE      CODE     ---       #508
      00FF0D8AH   LINE      CODE     ---       #509
      00FF0D94H   LINE      CODE     ---       #512
      00FF0DA9H   LINE      CODE     ---       #515
      00FF0DA9H   LINE      CODE     ---       #520
      00FF0DB9H   LINE      CODE     ---       #522
      00FF0DBBH   LINE      CODE     ---       #526
      00FF0DBBH   LINE      CODE     ---       #531
      00FF0DCBH   LINE      CODE     ---       #533
      00FF0DCDH   LINE      CODE     ---       #535
      00FF0DCDH   LINE      CODE     ---       #536
      00FF0DCDH   LINE      CODE     ---       #537
      00FF0DCDH   LINE      CODE     ---       #541
      00FF0DCDH   LINE      CODE     ---       #543
      00FF0DE2H   LINE      CODE     ---       #546
      00FF0DE2H   LINE      CODE     ---       #551
      00FF0DF2H   LINE      CODE     ---       #553
      00FF0DF4H   LINE      CODE     ---       #557
      00FF0DF4H   LINE      CODE     ---       #562
      00FF0E16H   LINE      CODE     ---       #564
      00FF0E16H   LINE      CODE     ---       #566
      00FF0E16H   LINE      CODE     ---       #567
      00FF0E16H   LINE      CODE     ---       #580
      00FF0E16H   LINE      CODE     ---       #586
      00FF0E16H   LINE      CODE     ---       #589
      00FF0E2CH   LINE      CODE     ---       #593
      00FF0E2CH   LINE      CODE     ---       #596
      00FF0E2CH   LINE      CODE     ---       #599
      00FF0E2CH   LINE      CODE     ---       #602
      00FF0E33H   LINE      CODE     ---       #604
      00FF0E3BH   LINE      CODE     ---       #606
      00FF0E43H   LINE      CODE     ---       #609
      00FF0E65H   LINE      CODE     ---       #611
      00FF0E7FH   LINE      CODE     ---       #617
      00FF0E9AH   LINE      CODE     ---       #620
      00FF0E9AH   LINE      CODE     ---       #622
      00FF0E9EH   LINE      CODE     ---       #624
      00FF0EC3H   LINE      CODE     ---       #625
      00FF0EDCH   LINE      CODE     ---       #627
      00FF0F02H   LINE      CODE     ---       #629
      00FF0F0EH   LINE      CODE     ---       #640
      00FF0F11H   LINE      CODE     ---       #644
      00FF0F11H   LINE      CODE     ---       #646
      00FF0F23H   LINE      CODE     ---       #648
      00FF0F5AH   LINE      CODE     ---       #649
      00FF0F75H   LINE      CODE     ---       #651
      00FF0F9CH   LINE      CODE     ---       #653
      00FF0FAAH   LINE      CODE     ---       #658
      00FF0FAAH   LINE      CODE     ---       #660
      00FF0FAAH   LINE      CODE     ---       #663
      00FF0FCCH   LINE      CODE     ---       #664
      00FF0FE3H   LINE      CODE     ---       #665
      00FF0FF9H   LINE      CODE     ---       #668
      00FF1003H   LINE      CODE     ---       #669
      00FF100DH   LINE      CODE     ---       #671
      00FF1020H   LINE      CODE     ---       #675
      00FF102EH   LINE      CODE     ---       #676
L251 LINKER/LOCATER V4.66.93.0                                                        01/04/2022  17:06:11  PAGE 124


      00FF102EH   LINE      CODE     ---       #702
      00FF102EH   LINE      CODE     ---       #706
      00FF1036H   LINE      CODE     ---       #713
      00FF1036H   LINE      CODE     ---       #714
      ---         BLOCKEND  ---      ---       LVL=0

      00FF047AH   BLOCK     CODE     ---       LVL=0
      WR14        REGSYM    ---      INT       dataBw
      0000AC88H   SYMBOL    EDATA    INT       modIdx
      WR12        REGSYM    ---      INT       codingType
      0000AC8AH   SYMBOL    EDATA    BYTE      bAutoCfg
      00FF0488H   BLOCK     CODE     NEAR LAB  LVL=1
      0000AC8BH   SYMBOL    EDATA    INT       dataBwEff
      0000AC8DH   SYMBOL    EDATA    INT       dataBwIdx
      0000AC8FH   SYMBOL    EDATA    INT       dataBwIdxDclk
      ---         BLOCKEND  ---      ---       LVL=1
      00FF047AH   LINE      CODE     ---       #716
      00FF0488H   LINE      CODE     ---       #722
      00FF0488H   LINE      CODE     ---       #727
      00FF049EH   LINE      CODE     ---       #729
      00FF04A8H   LINE      CODE     ---       #753
      00FF04C4H   LINE      CODE     ---       #757
      00FF04C4H   LINE      CODE     ---       #759
      00FF04CEH   LINE      CODE     ---       #760
      00FF04D4H   LINE      CODE     ---       #762
      00FF04E4H   LINE      CODE     ---       #764
      00FF04EAH   LINE      CODE     ---       #766
      00FF0506H   LINE      CODE     ---       #769
      00FF0508H   LINE      CODE     ---       #770
      00FF0512H   LINE      CODE     ---       #772
      00FF052EH   LINE      CODE     ---       #775
      00FF0530H   LINE      CODE     ---       #778
      00FF054FH   LINE      CODE     ---       #781
      00FF054FH   LINE      CODE     ---       #785
      00FF054FH   LINE      CODE     ---       #788
      00FF054FH   LINE      CODE     ---       #792
      00FF055EH   LINE      CODE     ---       #794
      00FF056EH   LINE      CODE     ---       #796
      00FF0570H   LINE      CODE     ---       #800
      00FF0585H   LINE      CODE     ---       #802
      00FF0595H   LINE      CODE     ---       #804
      00FF0597H   LINE      CODE     ---       #808
      00FF05B4H   LINE      CODE     ---       #811
      00FF05B4H   LINE      CODE     ---       #815
      00FF05BAH   LINE      CODE     ---       #816
      00FF05C4H   LINE      CODE     ---       #818
      00FF05DEH   LINE      CODE     ---       #822
      00FF05E7H   LINE      CODE     ---       #826
      00FF060BH   LINE      CODE     ---       #828
      00FF0621H   LINE      CODE     ---       #830
      00FF0638H   LINE      CODE     ---       #835
      00FF063EH   LINE      CODE     ---       #836
      00FF0648H   LINE      CODE     ---       #838
      00FF065BH   LINE      CODE     ---       #866
      00FF067FH   LINE      CODE     ---       #868
      00FF067FH   LINE      CODE     ---       #871
      00FF068BH   LINE      CODE     ---       #873
      00FF0697H   LINE      CODE     ---       #875
      00FF06A3H   LINE      CODE     ---       #878
      00FF06BEH   LINE      CODE     ---       #881
      00FF06BEH   LINE      CODE     ---       #884
      00FF06E7H   LINE      CODE     ---       #885
      00FF06FDH   LINE      CODE     ---       #888
      00FF0722H   LINE      CODE     ---       #889
      00FF073BH   LINE      CODE     ---       #891
L251 LINKER/LOCATER V4.66.93.0                                                        01/04/2022  17:06:11  PAGE 125


      00FF075FH   LINE      CODE     ---       #893
      00FF0775H   LINE      CODE     ---       #894
      00FF078BH   LINE      CODE     ---       #905
      00FF079BH   LINE      CODE     ---       #906
      00FF079EH   LINE      CODE     ---       #910
      00FF079EH   LINE      CODE     ---       #913
      00FF07C7H   LINE      CODE     ---       #914
      00FF07DDH   LINE      CODE     ---       #917
      00FF0802H   LINE      CODE     ---       #918
      00FF081BH   LINE      CODE     ---       #920
      00FF083FH   LINE      CODE     ---       #922
      00FF0855H   LINE      CODE     ---       #923
      00FF086BH   LINE      CODE     ---       #931
      00FF087DH   LINE      CODE     ---       #932
      00FF087DH   LINE      CODE     ---       #934
      00FF087DH   LINE      CODE     ---       #937
      00FF0897H   LINE      CODE     ---       #943
      00FF08B0H   LINE      CODE     ---       #946
      00FF08BEH   LINE      CODE     ---       #947
      00FF08BEH   LINE      CODE     ---       #980
      00FF08BEH   LINE      CODE     ---       #981
      00FF08BEH   LINE      CODE     ---       #982
      00FF08BEH   LINE      CODE     ---       #986
      00FF08CBH   LINE      CODE     ---       #987
      00FF08D2H   LINE      CODE     ---       #996
      00FF08D2H   LINE      CODE     ---       #997
      ---         BLOCKEND  ---      ---       LVL=0

      00FF558EH   BLOCK     CODE     ---       LVL=0
      R15         REGSYM    ---      BYTE      LNAGainIndex
      R8          REGSYM    ---      BYTE      TIAGainindex
      R9          REGSYM    ---      BYTE      VGAGainindex
      R10         REGSYM    ---      CHAR      RSSIvalue
      00FF5598H   BLOCK     CODE     NEAR LAB  LVL=1
      WR12        REGSYM    ---      INT       RSSIvalueTemp
      ---         BLOCKEND  ---      ---       LVL=1
      00FF558EH   LINE      CODE     ---       #999
      00FF5598H   LINE      CODE     ---       #1005
      00FF5598H   LINE      CODE     ---       #1007
      00FF5598H   LINE      CODE     ---       #1009
      00FF5598H   LINE      CODE     ---       #1014
      00FF55BCH   LINE      CODE     ---       #1016
      00FF55BCH   LINE      CODE     ---       #1019
      00FF55C1H   LINE      CODE     ---       #1020
      00FF55D3H   LINE      CODE     ---       #1024
      00FF55D8H   LINE      CODE     ---       #1025
      00FF55EAH   LINE      CODE     ---       #1028
      00FF55FAH   LINE      CODE     ---       #1029
      00FF55FCH   LINE      CODE     ---       #1030
      00FF560AH   LINE      CODE     ---       #1031
      ---         BLOCKEND  ---      ---       LVL=0

      ---         MODULE    ---      ---       hal_pkt
      00FF7862H   PUBLIC    CODE     ---       HALPKT_TxqDoneSet
      00FF70D6H   PUBLIC    CODE     ---       HALPKT_RxqDoneSet
      00FF7571H   PUBLIC    CODE     ---       HALPKT_PhyStatusGet

      00FF7862H   BLOCK     CODE     ---       LVL=0
      R14         REGSYM    ---      BYTE      bLocalTxQueue
      R15         REGSYM    ---      BYTE      txQueueId
      R10         REGSYM    ---      BYTE      txPktId
      WR4         REGSYM    ---      INT       txProcess
      00FF7862H   LINE      CODE     ---       #22
      00FF786AH   LINE      CODE     ---       #30
      00FF7874H   LINE      CODE     ---       #31
L251 LINKER/LOCATER V4.66.93.0                                                        01/04/2022  17:06:11  PAGE 126


      00FF7878H   LINE      CODE     ---       #34
      00FF7880H   LINE      CODE     ---       #36
      00FF7889H   LINE      CODE     ---       #37
      00FF788CH   LINE      CODE     ---       #38
      00FF788CH   LINE      CODE     ---       #40
      00FF7890H   LINE      CODE     ---       #43
      00FF7895H   LINE      CODE     ---       #44
      00FF7895H   LINE      CODE     ---       #46
      00FF7897H   LINE      CODE     ---       #47
      ---         BLOCKEND  ---      ---       LVL=0

      00FF70D6H   BLOCK     CODE     ---       LVL=0
      R7          REGSYM    ---      BYTE      bLocalRxQueue
      WR4         REGSYM    ---      INT       rxProcess
      00FF70D6H   LINE      CODE     ---       #49
      00FF70DAH   LINE      CODE     ---       #55
      00FF70E8H   LINE      CODE     ---       #56
      00FF70EBH   LINE      CODE     ---       #59
      00FF70F7H   LINE      CODE     ---       #61
      00FF70F7H   LINE      CODE     ---       #62
      00FF70F9H   LINE      CODE     ---       #63
      00FF70FBH   LINE      CODE     ---       #65
      00FF70FBH   LINE      CODE     ---       #66
      00FF7105H   LINE      CODE     ---       #67
      00FF7107H   LINE      CODE     ---       #69
      00FF7109H   LINE      CODE     ---       #70
      00FF710BH   LINE      CODE     ---       #72
      00FF710BH   LINE      CODE     ---       #73
      00FF7114H   LINE      CODE     ---       #74
      00FF7116H   LINE      CODE     ---       #76
      00FF7116H   LINE      CODE     ---       #77
      00FF7118H   LINE      CODE     ---       #78
      00FF7118H   LINE      CODE     ---       #80
      00FF711AH   LINE      CODE     ---       #81
      ---         BLOCKEND  ---      ---       LVL=0

      00FF7571H   BLOCK     CODE     ---       LVL=0
      R1          REGSYM    ---      BYTE      bLocalRxQueue
      REG=1       REGSYM    ---      ---       pRxPhyStatus
      00FF7577H   BLOCK     CODE     NEAR LAB  LVL=1
      WR4         REGSYM    ---      WORD      rxPktLength
      R15         REGSYM    ---      BYTE      retValue
      WR4         REGSYM    ---      WORD      offset
      ---         BLOCKEND  ---      ---       LVL=1
      00FF7571H   LINE      CODE     ---       #83
      00FF7577H   LINE      CODE     ---       #87
      00FF7577H   LINE      CODE     ---       #92
      00FF758DH   LINE      CODE     ---       #93
      00FF7591H   LINE      CODE     ---       #94
      00FF7595H   LINE      CODE     ---       #95
      00FF75A0H   LINE      CODE     ---       #97
      00FF75A9H   LINE      CODE     ---       #99
      00FF75ABH   LINE      CODE     ---       #100
      ---         BLOCKEND  ---      ---       LVL=0

      ---         MODULE    ---      ---       hal_rf
      00FF859BH   PUBLIC    CODE     ---       HALRF_AgcSet
      00FF7F04H   PUBLIC    CODE     ---       HALRF_TxPwrSet
      00FF83DFH   PUBLIC    CODE     ---       HALRF_TemperatureRptGet
      00FF83F6H   PUBLIC    CODE     ---       HALRF_VoltageRptGet

      00FF859BH   BLOCK     CODE     ---       LVL=0
      WR6         REGSYM    ---      INT       type
      R3          REGSYM    ---      BYTE      lnaGain
      R5          REGSYM    ---      BYTE      tiaGain
L251 LINKER/LOCATER V4.66.93.0                                                        01/04/2022  17:06:11  PAGE 127


      R4          REGSYM    ---      BYTE      vgaGain
      00FF859BH   LINE      CODE     ---       #29
      00FF859BH   LINE      CODE     ---       #37
      00FF859FH   LINE      CODE     ---       #38
      00FF85A3H   LINE      CODE     ---       #39
      00FF85A7H   LINE      CODE     ---       #40
      00FF85ABH   LINE      CODE     ---       #43
      ---         BLOCKEND  ---      ---       LVL=0

      00FF7F04H   BLOCK     CODE     ---       LVL=0
      WR14        REGSYM    ---      INT       rfBand
      R10         REGSYM    ---      BYTE      offset
      00FF7F04H   LINE      CODE     ---       #46
      00FF7F0AH   LINE      CODE     ---       #51
      00FF7F18H   LINE      CODE     ---       #52
      00FF7F1CH   LINE      CODE     ---       #54
      00FF7F23H   LINE      CODE     ---       #55
      00FF7F26H   LINE      CODE     ---       #56
      ---         BLOCKEND  ---      ---       LVL=0

      00FF83DFH   BLOCK     CODE     ---       LVL=0
      REG=4       REGSYM    ---      ---       pTimeStamp
      REG=5       REGSYM    ---      ---       pValue
      00FF83DFH   LINE      CODE     ---       #58
      00FF83E3H   LINE      CODE     ---       #63
      00FF83EEH   LINE      CODE     ---       #64
      00FF83F5H   LINE      CODE     ---       #65
      ---         BLOCKEND  ---      ---       LVL=0

      00FF83F6H   BLOCK     CODE     ---       LVL=0
      REG=4       REGSYM    ---      ---       pTimeStamp
      REG=5       REGSYM    ---      ---       pValue
      00FF83F6H   LINE      CODE     ---       #67
      00FF83FAH   LINE      CODE     ---       #72
      00FF8405H   LINE      CODE     ---       #73
      00FF840CH   LINE      CODE     ---       #74
      ---         BLOCKEND  ---      ---       LVL=0

      ---         MODULE    ---      ---       hal_rfdb

      ---         MODULE    ---      ---       hal_sec
      00FF72B0H   PUBLIC    CODE     ---       HALSEC_AesKeySet
      00FF7BECH   PUBLIC    CODE     ---       HALSEC_AesKeyOnlySet
      00FF87C5H   PUBLIC    CODE     ---       HALSEC_NonceOnlySet
      00FF7A08H   PUBLIC    CODE     ---       HALSEC_AesLevelOnlySet
      00FF4DFBH   PUBLIC    CODE     ---       HALSEC_AesSet
      00FF7FFEH   PUBLIC    CODE     ---       HALSEC_AesTxSet
      0000AD06H   PUBLIC    EDATA    BYTE      ?HALSEC_AesSet?BYTE

      00FF72B0H   BLOCK     CODE     ---       LVL=0
      WR2         REGSYM    ---      INT       aesKeyType
      REG=0       REGSYM    ---      ---       pAesKey
      REG=7       REGSYM    ---      ---       pNonce
      00FF72B0H   LINE      CODE     ---       #22
      00FF72B8H   LINE      CODE     ---       #31
      00FF72D0H   LINE      CODE     ---       #34
      00FF72E3H   LINE      CODE     ---       #38
      00FF72F0H   LINE      CODE     ---       #39
      ---         BLOCKEND  ---      ---       LVL=0

      00FF7BECH   BLOCK     CODE     ---       LVL=0
      WR2         REGSYM    ---      INT       aesKeyType
      REG=0       REGSYM    ---      ---       pAesKey
      00FF7BECH   LINE      CODE     ---       #41
      00FF7BF0H   LINE      CODE     ---       #49
L251 LINKER/LOCATER V4.66.93.0                                                        01/04/2022  17:06:11  PAGE 128


      00FF7C08H   LINE      CODE     ---       #52
      ---         BLOCKEND  ---      ---       LVL=0

      00FF87C5H   BLOCK     CODE     ---       LVL=0
      REG=2       REGSYM    ---      ---       pNonce
      00FF87C5H   LINE      CODE     ---       #56
      00FF87C7H   LINE      CODE     ---       #62
      ---         BLOCKEND  ---      ---       LVL=0

      00FF7A08H   BLOCK     CODE     ---       LVL=0
      WR6         REGSYM    ---      INT       aesLevel
      R10         REGSYM    ---      BYTE      bLoopback
      00FF7A08H   LINE      CODE     ---       #65
      00FF7A0AH   LINE      CODE     ---       #73
      00FF7A26H   LINE      CODE     ---       #76
      00FF7A3AH   LINE      CODE     ---       #77
      ---         BLOCKEND  ---      ---       LVL=0

      00FF4DFBH   BLOCK     CODE     ---       LVL=0
      WR6         REGSYM    ---      INT       aesLevel
      WR8         REGSYM    ---      INT       aesMode
      R10         REGSYM    ---      BYTE      bLoopback
      WR2         REGSYM    ---      WORD      aDataLength
      WR0         REGSYM    ---      WORD      mDataLength
      0000AD0FH   SYMBOL    EDATA    WORD      bypassLen0
      0000AD11H   SYMBOL    EDATA    WORD      bypassLen1
      00FF4DFBH   LINE      CODE     ---       #80
      00FF4DFFH   LINE      CODE     ---       #93
      00FF4E1DH   LINE      CODE     ---       #96
      00FF4E32H   LINE      CODE     ---       #100
      00FF4E44H   LINE      CODE     ---       #104
      00FF4E52H   LINE      CODE     ---       #107
      00FF4E67H   LINE      CODE     ---       #108
      00FF4E7CH   LINE      CODE     ---       #111
      00FF4E8CH   LINE      CODE     ---       #112
      ---         BLOCKEND  ---      ---       LVL=0

      00FF7FFEH   BLOCK     CODE     ---       LVL=0
      WR0         REGSYM    ---      WORD      aDataLength
      WR2         REGSYM    ---      WORD      mDataLength
      00FF7FFEH   LINE      CODE     ---       #114
      00FF8002H   LINE      CODE     ---       #121
      00FF8012H   LINE      CODE     ---       #125
      00FF8020H   LINE      CODE     ---       #126
      ---         BLOCKEND  ---      ---       LVL=0

      ---         MODULE    ---      ---       hal_rfk
      00FF3F3BH   PUBLIC    CODE     ---       HALRFK_Calibration
      00FF5406H   PUBLIC    CODE     ---       HALRFK_kValueSet
      00FF4538H   PUBLIC    CODE     ---       HALRFK_kValueSet2Hw
      00FF548AH   PUBLIC    CODE     ---       HALRFK_kValueGet

      00FF3F3BH   BLOCK     CODE     ---       LVL=0
      00FF3F3DH   BLOCK     CODE     NEAR LAB  LVL=1
      WR14        REGSYM    ---      INT       rfBand
      REG=6       REGSYM    ---      ---       pRfkCtrl
      0000AB91H   SYMBOL    EDATA    ---       sHalrfkParaBackup
      ---         BLOCKEND  ---      ---       LVL=1
      00FF3F3BH   LINE      CODE     ---       #47
      00FF3F3DH   LINE      CODE     ---       #48
      00FF3F3DH   LINE      CODE     ---       #49
      00FF3F42H   LINE      CODE     ---       #50
      00FF3F46H   LINE      CODE     ---       #57
      00FF3F4CH   LINE      CODE     ---       #61
      00FF3F53H   LINE      CODE     ---       #62
L251 LINKER/LOCATER V4.66.93.0                                                        01/04/2022  17:06:11  PAGE 129


      00FF3F53H   LINE      CODE     ---       #74
      00FF3F5AH   LINE      CODE     ---       #78
      00FF3F5FH   LINE      CODE     ---       #93
      00FF3F66H   LINE      CODE     ---       #95
      00FF3F6BH   LINE      CODE     ---       #96
      00FF3F6EH   LINE      CODE     ---       #97
      00FF3F77H   LINE      CODE     ---       #98
      00FF3F7AH   LINE      CODE     ---       #99
      00FF3F7DH   LINE      CODE     ---       #100
      00FF3F89H   LINE      CODE     ---       #104
      00FF3F8EH   LINE      CODE     ---       #112
      00FF3F93H   LINE      CODE     ---       #127
      00FF3F9AH   LINE      CODE     ---       #129
      00FF3F9FH   LINE      CODE     ---       #130
      00FF3FA2H   LINE      CODE     ---       #131
      00FF3FAFH   LINE      CODE     ---       #132
      00FF3FB2H   LINE      CODE     ---       #133
      00FF3FB5H   LINE      CODE     ---       #134
      00FF3FC1H   LINE      CODE     ---       #139
      00FF3FC8H   LINE      CODE     ---       #141
      00FF3FCDH   LINE      CODE     ---       #142
      00FF3FD0H   LINE      CODE     ---       #143
      00FF3FDFH   LINE      CODE     ---       #144
      00FF3FE2H   LINE      CODE     ---       #145
      00FF3FE5H   LINE      CODE     ---       #146
      00FF3FF1H   LINE      CODE     ---       #150
      00FF3FF6H   LINE      CODE     ---       #154
      00FF3FFDH   LINE      CODE     ---       #167
      ---         BLOCKEND  ---      ---       LVL=0

      00FF5406H   BLOCK     CODE     ---       LVL=0
      WR4         REGSYM    ---      INT       rfkBand
      R11         REGSYM    ---      BYTE      status
      R10         REGSYM    ---      BYTE      rxFilt
      REG=1       REGSYM    ---      ---       pTxLo
      REG=4       REGSYM    ---      ---       pTxSb
      00FF540EH   BLOCK     CODE     NEAR LAB  LVL=1
      REG=15      REGSYM    ---      ---       pRfkCtrl
      WR14        REGSYM    ---      INT       rfBand
      ---         BLOCKEND  ---      ---       LVL=1
      00FF5406H   LINE      CODE     ---       #197
      00FF540EH   LINE      CODE     ---       #204
      00FF540EH   LINE      CODE     ---       #205
      00FF5412H   LINE      CODE     ---       #207
      00FF541EH   LINE      CODE     ---       #210
      00FF5425H   LINE      CODE     ---       #211
      00FF542DH   LINE      CODE     ---       #212
      00FF543AH   LINE      CODE     ---       #213
      00FF5448H   LINE      CODE     ---       #214
      00FF5459H   LINE      CODE     ---       #215
      00FF546BH   LINE      CODE     ---       #216
      00FF547DH   LINE      CODE     ---       #219
      00FF5484H   LINE      CODE     ---       #220
      00FF5487H   LINE      CODE     ---       #221
      ---         BLOCKEND  ---      ---       LVL=0

      00FF4538H   BLOCK     CODE     ---       LVL=0
      WR4         REGSYM    ---      INT       rfBand
      REG=1       REGSYM    ---      ---       pRfkCtrl
      00FF4538H   LINE      CODE     ---       #223
      00FF4538H   LINE      CODE     ---       #224
      00FF4538H   LINE      CODE     ---       #225
      00FF453DH   LINE      CODE     ---       #226
      00FF4541H   LINE      CODE     ---       #227
      00FF4541H   LINE      CODE     ---       #230
L251 LINKER/LOCATER V4.66.93.0                                                        01/04/2022  17:06:11  PAGE 130


      00FF454BH   LINE      CODE     ---       #233
      00FF4560H   LINE      CODE     ---       #237
      00FF4562H   LINE      CODE     ---       #241
      00FF4577H   LINE      CODE     ---       #245
      00FF4577H   LINE      CODE     ---       #247
      00FF457CH   LINE      CODE     ---       #249
      00FF458DH   LINE      CODE     ---       #250
      00FF4591H   LINE      CODE     ---       #251
      00FF4593H   LINE      CODE     ---       #254
      00FF459BH   LINE      CODE     ---       #255
      00FF45A2H   LINE      CODE     ---       #256
      00FF45A2H   LINE      CODE     ---       #258
      00FF45A7H   LINE      CODE     ---       #260
      00FF45BAH   LINE      CODE     ---       #261
      00FF45C5H   LINE      CODE     ---       #262
      00FF45D0H   LINE      CODE     ---       #263
      00FF45D1H   LINE      CODE     ---       #266
      00FF45DAH   LINE      CODE     ---       #267
      00FF45E2H   LINE      CODE     ---       #268
      00FF45EBH   LINE      CODE     ---       #269
      00FF45EBH   LINE      CODE     ---       #274
      00FF45EBH   LINE      CODE     ---       #276
      ---         BLOCKEND  ---      ---       LVL=0

      00FF548AH   BLOCK     CODE     ---       LVL=0
      0000AD13H   SYMBOL    EDATA    ---       pStatus
      0000AD15H   SYMBOL    EDATA    ---       pRxFilt
      REG=6       REGSYM    ---      ---       pTxLo
      REG=7       REGSYM    ---      ---       pTxSb
      00FF5498H   BLOCK     CODE     NEAR LAB  LVL=1
      WR4         REGSYM    ---      INT       rfBand
      REG=1       REGSYM    ---      ---       pRfkCtrl
      ---         BLOCKEND  ---      ---       LVL=1
      00FF548AH   LINE      CODE     ---       #278
      00FF5498H   LINE      CODE     ---       #284
      00FF5498H   LINE      CODE     ---       #286
      00FF549DH   LINE      CODE     ---       #287
      00FF54A1H   LINE      CODE     ---       #289
      00FF54ADH   LINE      CODE     ---       #290
      00FF54BCH   LINE      CODE     ---       #291
      00FF54C9H   LINE      CODE     ---       #292
      00FF54D7H   LINE      CODE     ---       #293
      00FF54E8H   LINE      CODE     ---       #294
      00FF54FAH   LINE      CODE     ---       #295
      00FF550AH   LINE      CODE     ---       #304
      ---         BLOCKEND  ---      ---       LVL=0

      ---         MODULE    ---      ---       hal_io
      00FF7781H   PUBLIC    CODE     ---       HALIO_dioSet
      00000080H   SFRSYM    DATA     BYTE      P0

      00FF7781H   BLOCK     CODE     ---       LVL=0
      00FF7781H   LINE      CODE     ---       #23
      00FF7781H   LINE      CODE     ---       #32
      00FF77A0H   LINE      CODE     ---       #33
      00FF77B6H   LINE      CODE     ---       #36
      00FF77B9H   LINE      CODE     ---       #38
      ---         BLOCKEND  ---      ---       LVL=0

      ---         MODULE    ---      ---       hal_init
      00FF4248H   PUBLIC    CODE     ---       HAL_ParaInit
      00FF7661H   PUBLIC    CODE     ---       HAL_DftParaGet
      0000AAA1H   PUBLIC    EDATA    ---       pHalFwCfg
      0000AAA5H   PUBLIC    EDATA    ---       pHalRegPatch
      0000AAA9H   PUBLIC    EDATA    ---       pHalHwCfg
L251 LINKER/LOCATER V4.66.93.0                                                        01/04/2022  17:06:11  PAGE 131


      0000AAADH   PUBLIC    EDATA    ---       pHalMdmDefaultCfg
      0000AAB1H   PUBLIC    EDATA    ---       pHalRfDefaultCfg2G
      0000AAB5H   PUBLIC    EDATA    ---       pHalRfDefaultCfgSubG
      0000AAB9H   PUBLIC    EDATA    ---       pHalPmuDefaultCfg2G
      0000AABDH   PUBLIC    EDATA    ---       pHalPmuDefaultCfgSubG
      0000AAC1H   PUBLIC    EDATA    ---       pHalBmuMemSize
      0000AAC5H   PUBLIC    EDATA    ---       pHalHwPara
      0000AAC9H   PUBLIC    EDATA    ---       pHalHwTab
      0000AACDH   PUBLIC    EDATA    ---       sHalCtrl
      0000AAF8H   PUBLIC    EDATA    ---       sHalPktCfg
      0000AB23H   PUBLIC    EDATA    ---       pHalPktCfg
      0000AB25H   PUBLIC    EDATA    ---       sHalFuncHdlr
      0000AB4DH   PUBLIC    EDATA    ---       pHalPrtclCfg
      00FFFE4DH   PUBLIC    HCONST   ---       sHalParaIndDefault

      00FF7661H   BLOCK     CODE     ---       LVL=0
      WR2         REGSYM    ---      INT       halType
      00FF7663H   BLOCK     CODE     NEAR LAB  LVL=1
      REG=2       REGSYM    ---      ---       pHalParaInd
      ---         BLOCKEND  ---      ---       LVL=1
      00FF7661H   LINE      CODE     ---       #243
      00FF7663H   LINE      CODE     ---       #246
      00FF7663H   LINE      CODE     ---       #254
      00FF766BH   LINE      CODE     ---       #256
      00FF7677H   LINE      CODE     ---       #259
      00FF7677H   LINE      CODE     ---       #260
      00FF767FH   LINE      CODE     ---       #261
      00FF7681H   LINE      CODE     ---       #265
      00FF7681H   LINE      CODE     ---       #266
      00FF7689H   LINE      CODE     ---       #267
      00FF768BH   LINE      CODE     ---       #271
      00FF768BH   LINE      CODE     ---       #272
      00FF7697H   LINE      CODE     ---       #273
      00FF7698H   LINE      CODE     ---       #282
      00FF7698H   LINE      CODE     ---       #283
      00FF769CH   LINE      CODE     ---       #284
      00FF769CH   LINE      CODE     ---       #285
      ---         BLOCKEND  ---      ---       LVL=0

      00FF4248H   BLOCK     CODE     ---       LVL=0
      00FF4248H   LINE      CODE     ---       #289
      00FF4248H   LINE      CODE     ---       #290
      00FF4248H   LINE      CODE     ---       #309
      00FF4248H   LINE      CODE     ---       #311
      00FF424EH   LINE      CODE     ---       #319
      00FF4260H   LINE      CODE     ---       #330
      00FF4272H   LINE      CODE     ---       #347
      00FF4284H   LINE      CODE     ---       #350
      00FF4296H   LINE      CODE     ---       #369
      00FF42A8H   LINE      CODE     ---       #372
      00FF42BAH   LINE      CODE     ---       #382
      00FF42CCH   LINE      CODE     ---       #390
      00FF42DEH   LINE      CODE     ---       #398
      00FF42F0H   LINE      CODE     ---       #406
      00FF4302H   LINE      CODE     ---       #414
      00FF4308H   LINE      CODE     ---       #417
      ---         BLOCKEND  ---      ---       LVL=0

      ---         MODULE    ---      ---       hal_patch

      ---         MODULE    ---      ---       hal_prtcl
      00FFFEDBH   PUBLIC    HCONST   ---       sHalPrtclCfg

      ---         MODULE    ---      ---       hal_rt569mp_init
      00FF1E16H   PUBLIC    CODE     ---       HAL_HwInit
L251 LINKER/LOCATER V4.66.93.0                                                        01/04/2022  17:06:11  PAGE 132



      00FF1E16H   BLOCK     CODE     ---       LVL=0
      WR14        REGSYM    ---      INT       rfBand
      00FF1E16H   LINE      CODE     ---       #29
      00FF1E1AH   LINE      CODE     ---       #120
      00FF1E1AH   LINE      CODE     ---       #123
      00FF1E29H   LINE      CODE     ---       #126
      00FF1E38H   LINE      CODE     ---       #129
      00FF1E38H   LINE      CODE     ---       #130
      00FF1E47H   LINE      CODE     ---       #131
      00FF1E56H   LINE      CODE     ---       #132
      00FF1E62H   LINE      CODE     ---       #135
      00FF1E67H   LINE      CODE     ---       #136
      00FF1E73H   LINE      CODE     ---       #138
      00FF1E7CH   LINE      CODE     ---       #140
      00FF1E7FH   LINE      CODE     ---       #144
      00FF1E7FH   LINE      CODE     ---       #145
      00FF1E8EH   LINE      CODE     ---       #146
      00FF1E9DH   LINE      CODE     ---       #147
      00FF1EA9H   LINE      CODE     ---       #149
      00FF1EB5H   LINE      CODE     ---       #150
      00FF1EC1H   LINE      CODE     ---       #151
      00FF1EC6H   LINE      CODE     ---       #152
      00FF1ED2H   LINE      CODE     ---       #153
      00FF1EE0H   LINE      CODE     ---       #154
      00FF1EECH   LINE      CODE     ---       #155
      00FF1EF8H   LINE      CODE     ---       #156
      00FF1F04H   LINE      CODE     ---       #157
      00FF1F10H   LINE      CODE     ---       #158
      00FF1F1CH   LINE      CODE     ---       #159
      00FF1F28H   LINE      CODE     ---       #160
      00FF1F36H   LINE      CODE     ---       #161
      00FF1F3BH   LINE      CODE     ---       #163
      00FF1F47H   LINE      CODE     ---       #165
      00FF1F4CH   LINE      CODE     ---       #168
      00FF1F54H   LINE      CODE     ---       #171
      00FF1F54H   LINE      CODE     ---       #173
      00FF1F54H   LINE      CODE     ---       #176
      00FF1F57H   LINE      CODE     ---       #179
      00FF1F76H   LINE      CODE     ---       #191
      00FF1F82H   LINE      CODE     ---       #192
      00FF1F87H   LINE      CODE     ---       #194
      00FF1F8CH   LINE      CODE     ---       #208
      00FF1F99H   LINE      CODE     ---       #210
      00FF1F9CH   LINE      CODE     ---       #213
      00FF1FA9H   LINE      CODE     ---       #215
      00FF1FACH   LINE      CODE     ---       #218
      00FF1FB2H   LINE      CODE     ---       #229
      00FF1FBBH   LINE      CODE     ---       #230
      00FF1FC3H   LINE      CODE     ---       #236
      ---         BLOCKEND  ---      ---       LVL=0

      ---         MODULE    ---      ---       rt569mp_mem
      00FFFF5CH   PUBLIC    HCONST   ---       pMemMapSharedBuffer
      00FFFF5EH   PUBLIC    HCONST   ---       pMemMapExtData
      00FFFF60H   PUBLIC    HCONST   ---       pMemMapBmuLinkTable

      ---         MODULE    ---      ---       rt569mp_reg
      00FFFF68H   PUBLIC    HCONST   ---       pBmuMacIntrSts

      ---         MODULE    ---      ---       hal_rt569mp_rfk
      00FF40C3H   PUBLIC    CODE     ---       HALRFK_ParaBackUp
      00FF4A60H   PUBLIC    CODE     ---       HALRFK_ParaRecover
      00FF826BH   PUBLIC    CODE     ---       HALRFK_SingleToneEnable
      00FF87D2H   PUBLIC    CODE     ---       HALRFK_SingleToneDisable
L251 LINKER/LOCATER V4.66.93.0                                                        01/04/2022  17:06:11  PAGE 133


      00FF7906H   PUBLIC    CODE     ---       HALRFK_PllForLokSet
      00FF52F5H   PUBLIC    CODE     ---       HALRFK_TxLok
      00FF78D0H   PUBLIC    CODE     ---       HALRFK_PllForSideBandKSet
      00FF39BAH   PUBLIC    CODE     ---       HALRFK_TxSbk
      00FF373EH   PUBLIC    CODE     ---       HALRFK_LbPathEnable
      00FF7E6BH   PUBLIC    CODE     ---       HALRFK_LbPathDisable
      00FF31CCH   PUBLIC    CODE     ---       HALRFK_LbTrxEnable
      00FF8181H   PUBLIC    CODE     ---       HALRFK_LbTrxDisable
      00FF66DBH   PUBLIC    CODE     ---       HALRFK_PllForFiltKSet
      00FF33ADH   PUBLIC    CODE     ---       HALRFK_RxFiltK
      00FF570FH   PUBLIC    CODE     ---       HALRFK_RxPathEnable
      00FF7D25H   PUBLIC    CODE     ---       HALRFK_RxPathDisable
      00FF2FE5H   PUBLIC    CODE     ---       HALRFK_RxEnable
      00FF819FH   PUBLIC    CODE     ---       HALRFK_RxDisable
      00FF32BDH   PUBLIC    CODE     ---       HALRFK_RingPllSet
      00FF7A3BH   PUBLIC    CODE     ---       HALRFK_AllPathDisable
      00FF613CH   PUBLIC    CODE     ---       HALRFK_RssiGet
      00FF679EH   PUBLIC    CODE     ---       HALRFK_RfGainCfg
      00FF590AH   PUBLIC    CODE     ---       HALRFK_RfPllCfg
      00FF5A80H   PUBLIC    CODE     ---       HALRFK_RfTxCfg
      00FF578FH   PUBLIC    CODE     ---       HALRFK_RxBwCfg
      0000AD17H   PUBLIC    EDATA    ---       sHalRfkCtrl
      0000AD1FH   PUBLIC    EDATA    BYTE      ?HALRFK_RingPllSet?BYTE

      00FF32BDH   BLOCK     CODE     ---       LVL=0
      WR30        REGSYM    ---      INT       band
      R11         REGSYM    ---      BYTE      divNum
      R9          REGSYM    ---      BYTE      divNum2
      R10         REGSYM    ---      BYTE      calDiv
      R3          REGSYM    ---      BYTE      div2ClkRing
      R2          REGSYM    ---      BYTE      manuBank
      R1          REGSYM    ---      BYTE      bank1
      R0          REGSYM    ---      BYTE      iniBank
      0000AD28H   SYMBOL    EDATA    BYTE      bypRst
      0000AD29H   SYMBOL    EDATA    BYTE      tuneBuff
      0000AD2AH   SYMBOL    EDATA    BYTE      calBuf
      00FF32BDH   LINE      CODE     ---       #196
      00FF32BFH   LINE      CODE     ---       #210
      00FF32D2H   LINE      CODE     ---       #211
      00FF32E5H   LINE      CODE     ---       #212
      00FF32F9H   LINE      CODE     ---       #213
      00FF330FH   LINE      CODE     ---       #214
      00FF3323H   LINE      CODE     ---       #215
      00FF3335H   LINE      CODE     ---       #216
      00FF334AH   LINE      CODE     ---       #217
      00FF3360H   LINE      CODE     ---       #218
      00FF3376H   LINE      CODE     ---       #219
      00FF337CH   LINE      CODE     ---       #220
      00FF338FH   LINE      CODE     ---       #222
      00FF33ACH   LINE      CODE     ---       #223
      ---         BLOCKEND  ---      ---       LVL=0

      00FF7A3BH   BLOCK     CODE     ---       LVL=0
      00FF7A3BH   LINE      CODE     ---       #225
      00FF7A3BH   LINE      CODE     ---       #227
      00FF7A47H   LINE      CODE     ---       #228
      00FF7A4CH   LINE      CODE     ---       #229
      00FF7A51H   LINE      CODE     ---       #230
      00FF7A56H   LINE      CODE     ---       #231
      00FF7A62H   LINE      CODE     ---       #232
      00FF7A67H   LINE      CODE     ---       #233
      00FF7A6CH   LINE      CODE     ---       #234
      ---         BLOCKEND  ---      ---       LVL=0

      00FF613CH   BLOCK     CODE     ---       LVL=0
L251 LINKER/LOCATER V4.66.93.0                                                        01/04/2022  17:06:11  PAGE 134


      WR4         REGSYM    ---      WORD      extraDelay
      R15         REGSYM    ---      BYTE      rssiAvg
      00FF6142H   BLOCK     CODE     NEAR LAB  LVL=1
      WR12        REGSYM    ---      INT       rssiAcc
      0000AD3DH   SYMBOL    EDATA    CHAR      rssiTemp
      R14         REGSYM    ---      BYTE      idx
      ---         BLOCKEND  ---      ---       LVL=1
      00FF613CH   LINE      CODE     ---       #236
      00FF6142H   LINE      CODE     ---       #240
      00FF6142H   LINE      CODE     ---       #247
      00FF614EH   LINE      CODE     ---       #249
      00FF6155H   LINE      CODE     ---       #251
      00FF6161H   LINE      CODE     ---       #254
      00FF6163H   LINE      CODE     ---       #255
      00FF6167H   LINE      CODE     ---       #257
      00FF616EH   LINE      CODE     ---       #258
      00FF6179H   LINE      CODE     ---       #259
      00FF6181H   LINE      CODE     ---       #260
      00FF6198H   LINE      CODE     ---       #262
      00FF61A5H   LINE      CODE     ---       #263
      ---         BLOCKEND  ---      ---       LVL=0

      00FF679EH   BLOCK     CODE     ---       LVL=0
      R10         REGSYM    ---      BYTE      lnaGain
      R2          REGSYM    ---      BYTE      vgaGain
      R3          REGSYM    ---      BYTE      tiaGain
      00FF679EH   LINE      CODE     ---       #265
      00FF67A4H   LINE      CODE     ---       #271
      00FF67B2H   LINE      CODE     ---       #272
      00FF67C6H   LINE      CODE     ---       #273
      00FF67D6H   LINE      CODE     ---       #274
      00FF67EAH   LINE      CODE     ---       #275
      00FF67FEH   LINE      CODE     ---       #276
      ---         BLOCKEND  ---      ---       LVL=0

      00FF590AH   BLOCK     CODE     ---       LVL=0
      R11         REGSYM    ---      BYTE      pllN
      R9          REGSYM    ---      BYTE      pllS
      WR2         REGSYM    ---      WORD      pllSDM
      R0          REGSYM    ---      BYTE      mod
      R1          REGSYM    ---      BYTE      mod46
      R10         REGSYM    ---      BYTE      selVco
      00FF590AH   LINE      CODE     ---       #278
      00FF5914H   LINE      CODE     ---       #287
      00FF5927H   LINE      CODE     ---       #288
      00FF593EH   LINE      CODE     ---       #289
      00FF594CH   LINE      CODE     ---       #290
      00FF5960H   LINE      CODE     ---       #291
      00FF5973H   LINE      CODE     ---       #292
      00FF5987H   LINE      CODE     ---       #293
      ---         BLOCKEND  ---      ---       LVL=0

      00FF5A80H   BLOCK     CODE     ---       LVL=0
      R0          REGSYM    ---      BYTE      regGainAttRefBle
      R1          REGSYM    ---      BYTE      gainPre
      R2          REGSYM    ---      BYTE      pwPa
      R5          REGSYM    ---      BYTE      pwD2sb
      R4          REGSYM    ---      BYTE      pabPreSze
      00FF5A80H   LINE      CODE     ---       #295
      00FF5A82H   LINE      CODE     ---       #303
      00FF5A96H   LINE      CODE     ---       #304
      00FF5AB1H   LINE      CODE     ---       #305
      00FF5AC7H   LINE      CODE     ---       #307
      00FF5AE1H   LINE      CODE     ---       #311
      00FF5AFBH   LINE      CODE     ---       #312
L251 LINKER/LOCATER V4.66.93.0                                                        01/04/2022  17:06:11  PAGE 135


      ---         BLOCKEND  ---      ---       LVL=0

      00FF578FH   BLOCK     CODE     ---       LVL=0
      00FF578FH   LINE      CODE     ---       #319
      00FF578FH   LINE      CODE     ---       #322
      00FF579DH   LINE      CODE     ---       #323
      00FF57ABH   LINE      CODE     ---       #324
      00FF57B2H   LINE      CODE     ---       #328
      00FF57C5H   LINE      CODE     ---       #337
      00FF57D8H   LINE      CODE     ---       #344
      00FF57EBH   LINE      CODE     ---       #350
      00FF57F9H   LINE      CODE     ---       #353
      00FF5805H   LINE      CODE     ---       #354
      00FF580DH   LINE      CODE     ---       #355
      ---         BLOCKEND  ---      ---       LVL=0

      00FF40C3H   BLOCK     CODE     ---       LVL=0
      REG=2       REGSYM    ---      ---       pPara
      00FF40C3H   LINE      CODE     ---       #357
      00FF40C5H   LINE      CODE     ---       #369
      00FF40D2H   LINE      CODE     ---       #370
      00FF40E0H   LINE      CODE     ---       #371
      00FF40EDH   LINE      CODE     ---       #372
      00FF40FAH   LINE      CODE     ---       #373
      00FF4107H   LINE      CODE     ---       #374
      00FF4114H   LINE      CODE     ---       #375
      00FF4123H   LINE      CODE     ---       #376
      00FF412EH   LINE      CODE     ---       #378
      00FF413CH   LINE      CODE     ---       #380
      00FF414BH   LINE      CODE     ---       #383
      00FF415AH   LINE      CODE     ---       #384
      00FF4165H   LINE      CODE     ---       #385
      00FF4172H   LINE      CODE     ---       #386
      00FF4183H   LINE      CODE     ---       #389
      ---         BLOCKEND  ---      ---       LVL=0

      00FF4A60H   BLOCK     CODE     ---       LVL=0
      REG=7       REGSYM    ---      ---       pPara
      00FF4A60H   LINE      CODE     ---       #396
      00FF4A64H   LINE      CODE     ---       #401
      00FF4A7EH   LINE      CODE     ---       #402
      00FF4A96H   LINE      CODE     ---       #404
      00FF4AADH   LINE      CODE     ---       #408
      00FF4AC9H   LINE      CODE     ---       #409
      00FF4AD4H   LINE      CODE     ---       #410
      00FF4AEAH   LINE      CODE     ---       #411
      00FF4AFBH   LINE      CODE     ---       #412
      ---         BLOCKEND  ---      ---       LVL=0

      00FF826BH   BLOCK     CODE     ---       LVL=0
      R11         REGSYM    ---      BYTE      stI
      R4          REGSYM    ---      BYTE      stQ
      00FF826BH   LINE      CODE     ---       #414
      00FF826DH   LINE      CODE     ---       #420
      00FF8274H   LINE      CODE     ---       #421
      00FF827BH   LINE      CODE     ---       #424
      00FF8287H   LINE      CODE     ---       #425
      ---         BLOCKEND  ---      ---       LVL=0

      00FF87D2H   BLOCK     CODE     ---       LVL=0
      00FF87D2H   LINE      CODE     ---       #427
      00FF87D2H   LINE      CODE     ---       #430
      00FF87DEH   LINE      CODE     ---       #431
      ---         BLOCKEND  ---      ---       LVL=0

L251 LINKER/LOCATER V4.66.93.0                                                        01/04/2022  17:06:11  PAGE 136


      00FF7906H   BLOCK     CODE     ---       LVL=0
      WR14        REGSYM    ---      INT       rfBand
      00FF7906H   LINE      CODE     ---       #435
      00FF790AH   LINE      CODE     ---       #440
      00FF7917H   LINE      CODE     ---       #443
      00FF7921H   LINE      CODE     ---       #445
      00FF7925H   LINE      CODE     ---       #454
      00FF7925H   LINE      CODE     ---       #456
      00FF7938H   LINE      CODE     ---       #457
      00FF7938H   LINE      CODE     ---       #459
      00FF7938H   LINE      CODE     ---       #460
      ---         BLOCKEND  ---      ---       LVL=0

      00FF52F5H   BLOCK     CODE     ---       LVL=0
      REG=7       REGSYM    ---      ---       pDcOffset
      00FF52F9H   BLOCK     CODE     NEAR LAB  LVL=1
      0000AD1BH   SYMBOL    EDATA    CHAR      rssiMin
      0000AD1CH   SYMBOL    EDATA    CHAR      rssiTemp
      0000AD1DH   SYMBOL    EDATA    CHAR      minI
      R13         REGSYM    ---      CHAR      minQ
      R12         REGSYM    ---      CHAR      iIdx
      0000AD1EH   SYMBOL    EDATA    CHAR      qIdx
      ---         BLOCKEND  ---      ---       LVL=1
      00FF52F5H   LINE      CODE     ---       #462
      00FF52F9H   LINE      CODE     ---       #465
      00FF52F9H   LINE      CODE     ---       #484
      00FF52FFH   LINE      CODE     ---       #485
      00FF5304H   LINE      CODE     ---       #486
      00FF5306H   LINE      CODE     ---       #490
      00FF5309H   LINE      CODE     ---       #494
      00FF5310H   LINE      CODE     ---       #499
      00FF5316H   LINE      CODE     ---       #503
      00FF5321H   LINE      CODE     ---       #509
      00FF532DH   LINE      CODE     ---       #511
      00FF5337H   LINE      CODE     ---       #513
      00FF533FH   LINE      CODE     ---       #514
      00FF5343H   LINE      CODE     ---       #515
      00FF5347H   LINE      CODE     ---       #516
      00FF535AH   LINE      CODE     ---       #528
      00FF5362H   LINE      CODE     ---       #531
      00FF536DH   LINE      CODE     ---       #532
      00FF5374H   LINE      CODE     ---       #533
      00FF5377H   LINE      CODE     ---       #534
      00FF537BH   LINE      CODE     ---       #535
      ---         BLOCKEND  ---      ---       LVL=0

      00FF78D0H   BLOCK     CODE     ---       LVL=0
      WR14        REGSYM    ---      INT       rfBand
      00FF78D0H   LINE      CODE     ---       #539
      00FF78D4H   LINE      CODE     ---       #544
      00FF78E2H   LINE      CODE     ---       #547
      00FF78ECH   LINE      CODE     ---       #549
      00FF78F0H   LINE      CODE     ---       #558
      00FF78F0H   LINE      CODE     ---       #560
      00FF7903H   LINE      CODE     ---       #562
      00FF7903H   LINE      CODE     ---       #563
      ---         BLOCKEND  ---      ---       LVL=0

      00FF39BAH   BLOCK     CODE     ---       LVL=0
      REG=7       REGSYM    ---      ---       pIqc
      00FF39BEH   BLOCK     CODE     NEAR LAB  LVL=1
      0000AC91H   SYMBOL    EDATA    CHAR      rssiMin
      0000AC92H   SYMBOL    EDATA    CHAR      rssiTemp
      0000AC93H   SYMBOL    EDATA    CHAR      minA
      0000AC94H   SYMBOL    EDATA    CHAR      minB
L251 LINKER/LOCATER V4.66.93.0                                                        01/04/2022  17:06:11  PAGE 137


      0000AC95H   SYMBOL    EDATA    CHAR      minC
      WR12        REGSYM    ---      WORD      idx
      0000AC96H   SYMBOL    EDATA    ---       pSbkCand
      ---         BLOCKEND  ---      ---       LVL=1
      00FF39BAH   LINE      CODE     ---       #565
      00FF39BEH   LINE      CODE     ---       #568
      00FF39BEH   LINE      CODE     ---       #589
      00FF39C4H   LINE      CODE     ---       #590
      00FF39C8H   LINE      CODE     ---       #591
      00FF39CDH   LINE      CODE     ---       #592
      00FF39D3H   LINE      CODE     ---       #593
      00FF39DFH   LINE      CODE     ---       #597
      00FF39E3H   LINE      CODE     ---       #601
      00FF39F1H   LINE      CODE     ---       #602
      00FF39FCH   LINE      CODE     ---       #603
      00FF3A07H   LINE      CODE     ---       #609
      00FF3A14H   LINE      CODE     ---       #611
      00FF3A1EH   LINE      CODE     ---       #613
      00FF3A26H   LINE      CODE     ---       #614
      00FF3A31H   LINE      CODE     ---       #615
      00FF3A39H   LINE      CODE     ---       #616
      00FF3A41H   LINE      CODE     ---       #617
      00FF3A41H   LINE      CODE     ---       #620
      00FF3A4DH   LINE      CODE     ---       #631
      00FF3A51H   LINE      CODE     ---       #633
      00FF3A5CH   LINE      CODE     ---       #634
      00FF3A67H   LINE      CODE     ---       #635
      00FF3A72H   LINE      CODE     ---       #636
      00FF3A75H   LINE      CODE     ---       #637
      00FF3A7DH   LINE      CODE     ---       #638
      00FF3A85H   LINE      CODE     ---       #639
      ---         BLOCKEND  ---      ---       LVL=0

      00FF373EH   BLOCK     CODE     ---       LVL=0
      WR2         REGSYM    ---      INT       rfBand
      00FF373EH   LINE      CODE     ---       #659
      00FF3740H   LINE      CODE     ---       #664
      00FF3751H   LINE      CODE     ---       #665
      00FF3762H   LINE      CODE     ---       #668
      00FF3770H   LINE      CODE     ---       #669
      00FF377EH   LINE      CODE     ---       #670
      00FF3788H   LINE      CODE     ---       #673
      00FF3794H   LINE      CODE     ---       #674
      00FF37ADH   LINE      CODE     ---       #675
      00FF37B1H   LINE      CODE     ---       #689
      00FF37B1H   LINE      CODE     ---       #692
      00FF37B9H   LINE      CODE     ---       #693
      00FF37E5H   LINE      CODE     ---       #695
      00FF37F1H   LINE      CODE     ---       #696
      00FF37FDH   LINE      CODE     ---       #697
      00FF3809H   LINE      CODE     ---       #698
      00FF3815H   LINE      CODE     ---       #699
      00FF3815H   LINE      CODE     ---       #701
      00FF3815H   LINE      CODE     ---       #702
      ---         BLOCKEND  ---      ---       LVL=0

      00FF7E6BH   BLOCK     CODE     ---       LVL=0
      WR4         REGSYM    ---      INT       rfBand
      00FF7E6BH   LINE      CODE     ---       #704
      00FF7E6DH   LINE      CODE     ---       #709
      00FF7E79H   LINE      CODE     ---       #710
      00FF7E7DH   LINE      CODE     ---       #723
      00FF7E7DH   LINE      CODE     ---       #726
      00FF7E85H   LINE      CODE     ---       #728
      00FF7E91H   LINE      CODE     ---       #729
L251 LINKER/LOCATER V4.66.93.0                                                        01/04/2022  17:06:11  PAGE 138


      00FF7E91H   LINE      CODE     ---       #731
      00FF7E91H   LINE      CODE     ---       #732
      ---         BLOCKEND  ---      ---       LVL=0

      00FF31CCH   BLOCK     CODE     ---       LVL=0
      00FF31CEH   BLOCK     CODE     NEAR LAB  LVL=1
      R15         REGSYM    ---      BYTE      bandSel
      ---         BLOCKEND  ---      ---       LVL=1
      00FF31CCH   LINE      CODE     ---       #734
      00FF31CEH   LINE      CODE     ---       #735
      00FF31CEH   LINE      CODE     ---       #739
      00FF31D1H   LINE      CODE     ---       #742
      00FF31DDH   LINE      CODE     ---       #743
      00FF31EBH   LINE      CODE     ---       #744
      00FF31F0H   LINE      CODE     ---       #747
      00FF31FCH   LINE      CODE     ---       #748
      00FF3208H   LINE      CODE     ---       #749
      00FF3228H   LINE      CODE     ---       #750
      00FF3241H   LINE      CODE     ---       #751
      00FF325EH   LINE      CODE     ---       #752
      00FF326FH   LINE      CODE     ---       #753
      00FF3280H   LINE      CODE     ---       #754
      00FF328DH   LINE      CODE     ---       #755
      00FF329AH   LINE      CODE     ---       #756
      00FF32BAH   LINE      CODE     ---       #757
      ---         BLOCKEND  ---      ---       LVL=0

      00FF8181H   BLOCK     CODE     ---       LVL=0
      00FF8181H   LINE      CODE     ---       #759
      00FF8181H   LINE      CODE     ---       #762
      00FF818DH   LINE      CODE     ---       #763
      00FF8199H   LINE      CODE     ---       #764
      00FF819EH   LINE      CODE     ---       #765
      ---         BLOCKEND  ---      ---       LVL=0

      00FF66DBH   BLOCK     CODE     ---       LVL=0
      WR14        REGSYM    ---      INT       rfBand
      00FF66DBH   LINE      CODE     ---       #783
      00FF66DFH   LINE      CODE     ---       #788
      00FF66ECH   LINE      CODE     ---       #791
      00FF66F7H   LINE      CODE     ---       #793
      00FF66FBH   LINE      CODE     ---       #807
      00FF66FBH   LINE      CODE     ---       #809
      00FF670EH   LINE      CODE     ---       #811
      00FF6716H   LINE      CODE     ---       #812
      00FF671EH   LINE      CODE     ---       #813
      00FF672CH   LINE      CODE     ---       #814
      00FF673AH   LINE      CODE     ---       #815
      00FF673AH   LINE      CODE     ---       #817
      00FF673AH   LINE      CODE     ---       #818
      ---         BLOCKEND  ---      ---       LVL=0

      00FF33ADH   BLOCK     CODE     ---       LVL=0
      REG=7       REGSYM    ---      ---       pFiltCap
      00FF33B1H   BLOCK     CODE     NEAR LAB  LVL=1
      0000ACD1H   SYMBOL    EDATA    BYTE      minCap
      0000ACD2H   SYMBOL    EDATA    BYTE      cIdx
      0000ACD3H   SYMBOL    EDATA    CHAR      rssiRef
      0000ACD4H   SYMBOL    EDATA    CHAR      rssiTemp1
      WR12        REGSYM    ---      INT       minRssiDiff
      0000ACD5H   SYMBOL    EDATA    INT       rssiDiff
      ---         BLOCKEND  ---      ---       LVL=1
      00FF33ADH   LINE      CODE     ---       #820
      00FF33B1H   LINE      CODE     ---       #823
      00FF33B1H   LINE      CODE     ---       #853
L251 LINKER/LOCATER V4.66.93.0                                                        01/04/2022  17:06:11  PAGE 139


      00FF33B7H   LINE      CODE     ---       #854
      00FF33BBH   LINE      CODE     ---       #858
      00FF33C1H   LINE      CODE     ---       #862
      00FF33D7H   LINE      CODE     ---       #865
      00FF33EBH   LINE      CODE     ---       #869
      00FF33FBH   LINE      CODE     ---       #871
      00FF3401H   LINE      CODE     ---       #883
      00FF3423H   LINE      CODE     ---       #884
      00FF342FH   LINE      CODE     ---       #886
      00FF3453H   LINE      CODE     ---       #923
      00FF3459H   LINE      CODE     ---       #925
      00FF345DH   LINE      CODE     ---       #926
      00FF3465H   LINE      CODE     ---       #942
      00FF347AH   LINE      CODE     ---       #946
      00FF3491H   LINE      CODE     ---       #947
      00FF3494H   LINE      CODE     ---       #953
      ---         BLOCKEND  ---      ---       LVL=0

      00FF570FH   BLOCK     CODE     ---       LVL=0
      WR2         REGSYM    ---      INT       rfBand
      00FF570FH   LINE      CODE     ---       #957
      00FF5711H   LINE      CODE     ---       #962
      00FF5722H   LINE      CODE     ---       #963
      00FF5733H   LINE      CODE     ---       #966
      00FF5741H   LINE      CODE     ---       #967
      00FF574FH   LINE      CODE     ---       #968
      00FF5759H   LINE      CODE     ---       #971
      00FF5772H   LINE      CODE     ---       #972
      00FF5776H   LINE      CODE     ---       #983
      00FF5776H   LINE      CODE     ---       #985
      00FF5782H   LINE      CODE     ---       #986
      00FF578EH   LINE      CODE     ---       #987
      00FF578EH   LINE      CODE     ---       #989
      00FF578EH   LINE      CODE     ---       #990
      ---         BLOCKEND  ---      ---       LVL=0

      00FF7D25H   BLOCK     CODE     ---       LVL=0
      WR4         REGSYM    ---      INT       rfBand
      00FF7D25H   LINE      CODE     ---       #992
      00FF7D27H   LINE      CODE     ---       #997
      00FF7D33H   LINE      CODE     ---       #998
      00FF7D37H   LINE      CODE     ---       #1010
      00FF7D37H   LINE      CODE     ---       #1013
      00FF7D43H   LINE      CODE     ---       #1014
      00FF7D4FH   LINE      CODE     ---       #1015
      00FF7D4FH   LINE      CODE     ---       #1017
      00FF7D4FH   LINE      CODE     ---       #1018
      ---         BLOCKEND  ---      ---       LVL=0

      00FF2FE5H   BLOCK     CODE     ---       LVL=0
      00FF2FE7H   BLOCK     CODE     NEAR LAB  LVL=1
      R15         REGSYM    ---      BYTE      bandSel
      ---         BLOCKEND  ---      ---       LVL=1
      00FF2FE5H   LINE      CODE     ---       #1020
      00FF2FE7H   LINE      CODE     ---       #1021
      00FF2FE7H   LINE      CODE     ---       #1025
      00FF2FEAH   LINE      CODE     ---       #1028
      00FF2FF6H   LINE      CODE     ---       #1029
      00FF3004H   LINE      CODE     ---       #1030
      00FF3009H   LINE      CODE     ---       #1033
      00FF3015H   LINE      CODE     ---       #1034
      00FF3021H   LINE      CODE     ---       #1035
      00FF3041H   LINE      CODE     ---       #1036
      00FF3058H   LINE      CODE     ---       #1037
      00FF3073H   LINE      CODE     ---       #1038
L251 LINKER/LOCATER V4.66.93.0                                                        01/04/2022  17:06:11  PAGE 140


      00FF3084H   LINE      CODE     ---       #1039
      00FF3095H   LINE      CODE     ---       #1040
      00FF30A6H   LINE      CODE     ---       #1041
      00FF30B7H   LINE      CODE     ---       #1042
      00FF30D7H   LINE      CODE     ---       #1043
      ---         BLOCKEND  ---      ---       LVL=0

      00FF819FH   BLOCK     CODE     ---       LVL=0
      00FF819FH   LINE      CODE     ---       #1045
      00FF819FH   LINE      CODE     ---       #1048
      00FF81ABH   LINE      CODE     ---       #1049
      00FF81B7H   LINE      CODE     ---       #1050
      00FF81BCH   LINE      CODE     ---       #1051
      ---         BLOCKEND  ---      ---       LVL=0

      ---         MODULE    ---      ---       hal_rt569mp_rf
      00FF503CH   PUBLIC    CODE     ---       HALRF_PllCfg
      00FF2716H   PUBLIC    CODE     ---       HALRF_Freq2gCfg
      00FF1262H   PUBLIC    CODE     ---       HALRF_FreqSubgCfg
      00FF8719H   PUBLIC    CODE     ---       HALRF_AgcInit
      00FF8870H   PUBLIC    CODE     ---       HALRF_TemperatureMeasure
      00FF8871H   PUBLIC    CODE     ---       HALRF_VoltageMeasure
      00FF7E92H   PUBLIC    CODE     ---       HALRF_TxPwrSet2Hw
      00FF3816H   PUBLIC    CODE     ---       HALRF_AgcSet2Hw
      00FF69D5H   PUBLIC    CODE     ---       HALRF_IfCheck
      00FFFA8EH   PUBLIC    HCONST   ---       pllFreqBandTab
      00FFFAA6H   PUBLIC    HCONST   ---       pllDftBank

      00FF69D5H   BLOCK     CODE     ---       LVL=0
      R10         REGSYM    ---      BYTE      bZeroIfInclude
      REG=2       REGSYM    ---      ---       pIfNum
      REG=15      REGSYM    ---      ---       pIfTab
      REG=4       REGSYM    ---      ---       pPllCfgRet
      00FF69D5H   LINE      CODE     ---       #93
      00FF69DDH   LINE      CODE     ---       #112
      00FF69F2H   LINE      CODE     ---       #115
      00FF69F2H   LINE      CODE     ---       #116
      00FF69F7H   LINE      CODE     ---       #117
      00FF69FBH   LINE      CODE     ---       #118
      00FF6A02H   LINE      CODE     ---       #119
      00FF6A0AH   LINE      CODE     ---       #120
      00FF6A0AH   LINE      CODE     ---       #121
      00FF6A0CH   LINE      CODE     ---       #124
      00FF6A0CH   LINE      CODE     ---       #125
      00FF6A11H   LINE      CODE     ---       #126
      00FF6A20H   LINE      CODE     ---       #127
      00FF6A2BH   LINE      CODE     ---       #128
      00FF6A2CH   LINE      CODE     ---       #130
      00FF6A2CH   LINE      CODE     ---       #131
      00FF6A30H   LINE      CODE     ---       #132
      00FF6A30H   LINE      CODE     ---       #135
      ---         BLOCKEND  ---      ---       LVL=0

      00FF503CH   BLOCK     CODE     ---       LVL=0
      REG=7       REGSYM    ---      ---       pPllCfg
      00FF503CH   LINE      CODE     ---       #141
      00FF5040H   LINE      CODE     ---       #146
      00FF5056H   LINE      CODE     ---       #147
      00FF506EH   LINE      CODE     ---       #148
      00FF5081H   LINE      CODE     ---       #149
      00FF5097H   LINE      CODE     ---       #150
      00FF50ADH   LINE      CODE     ---       #152
      00FF50B2H   LINE      CODE     ---       #153
      00FF50C8H   LINE      CODE     ---       #158
      ---         BLOCKEND  ---      ---       LVL=0
L251 LINKER/LOCATER V4.66.93.0                                                        01/04/2022  17:06:11  PAGE 141



      00FF2716H   BLOCK     CODE     ---       LVL=0
      WR14        REGSYM    ---      WORD      freq
      00FF271CH   BLOCK     CODE     NEAR LAB  LVL=1
      0000ACB2H   SYMBOL    EDATA    ---       pIfTab
      0000ACB6H   SYMBOL    EDATA    BYTE      ifNum
      R10         REGSYM    ---      BYTE      ifIdx
      0000ACB7H   SYMBOL    EDATA    ---       pPllCfgRet
      DR4         REGSYM    ---      DWORD     freqTarget
      DR20        REGSYM    ---      DWORD     absTrxIf
      R13         REGSYM    ---      BYTE      ifBitShift
      ---         BLOCKEND  ---      ---       LVL=1
      00FF2716H   LINE      CODE     ---       #161
      00FF271CH   LINE      CODE     ---       #164
      00FF271CH   LINE      CODE     ---       #169
      00FF271EH   LINE      CODE     ---       #172
      00FF272EH   LINE      CODE     ---       #175
      00FF273CH   LINE      CODE     ---       #176
      00FF2748H   LINE      CODE     ---       #180
      00FF2752H   LINE      CODE     ---       #181
      00FF2755H   LINE      CODE     ---       #184
      00FF275AH   LINE      CODE     ---       #187
      00FF275EH   LINE      CODE     ---       #188
      00FF277CH   LINE      CODE     ---       #192
      00FF2782H   LINE      CODE     ---       #193
      00FF2786H   LINE      CODE     ---       #195
      00FF2788H   LINE      CODE     ---       #198
      00FF2798H   LINE      CODE     ---       #199
      00FF27A1H   LINE      CODE     ---       #200
      00FF27ABH   LINE      CODE     ---       #201
      00FF27B4H   LINE      CODE     ---       #203
      00FF27C9H   LINE      CODE     ---       #207
      00FF27D3H   LINE      CODE     ---       #208
      00FF27E3H   LINE      CODE     ---       #210
      00FF27F5H   LINE      CODE     ---       #211
      00FF280DH   LINE      CODE     ---       #212
      00FF281BH   LINE      CODE     ---       #213
      00FF2822H   LINE      CODE     ---       #214
      00FF282BH   LINE      CODE     ---       #215
      00FF2833H   LINE      CODE     ---       #218
      00FF283DH   LINE      CODE     ---       #219
      00FF2849H   LINE      CODE     ---       #220
      00FF2856H   LINE      CODE     ---       #221
      ---         BLOCKEND  ---      ---       LVL=0

      00FF1262H   BLOCK     CODE     ---       LVL=0
      DR12        REGSYM    ---      DWORD     freq
      00FF1266H   BLOCK     CODE     NEAR LAB  LVL=1
      0000AC02H   SYMBOL    EDATA    ---       pIfTab
      0000AC06H   SYMBOL    EDATA    BYTE      ifNum
      0000AC07H   SYMBOL    EDATA    BYTE      ifIdx
      0000AC08H   SYMBOL    EDATA    BYTE      bandIdx
      0000AC09H   SYMBOL    EDATA    ---       pPllCfgRet
      0000AC0BH   SYMBOL    EDATA    DWORD     freqTarget
      0000AC0FH   SYMBOL    EDATA    DWORD     absTrxIf
      0000AC13H   SYMBOL    EDATA    BYTE      ifBitShift
      ---         BLOCKEND  ---      ---       LVL=1
      00FF1262H   LINE      CODE     ---       #225
      00FF1266H   LINE      CODE     ---       #228
      00FF1266H   LINE      CODE     ---       #233
      00FF126BH   LINE      CODE     ---       #236
      00FF127CH   LINE      CODE     ---       #239
      00FF1288H   LINE      CODE     ---       #240
      00FF12A0H   LINE      CODE     ---       #241
      00FF12A4H   LINE      CODE     ---       #242
L251 LINKER/LOCATER V4.66.93.0                                                        01/04/2022  17:06:11  PAGE 142


      00FF12BCH   LINE      CODE     ---       #243
      00FF12C2H   LINE      CODE     ---       #244
      00FF12DAH   LINE      CODE     ---       #245
      00FF12E0H   LINE      CODE     ---       #247
      00FF12ECH   LINE      CODE     ---       #251
      00FF12F6H   LINE      CODE     ---       #252
      00FF12FCH   LINE      CODE     ---       #255
      00FF1300H   LINE      CODE     ---       #258
      00FF130DH   LINE      CODE     ---       #259
      00FF1330H   LINE      CODE     ---       #263
      00FF1336H   LINE      CODE     ---       #264
      00FF1342H   LINE      CODE     ---       #266
      00FF1350H   LINE      CODE     ---       #267
      00FF1366H   LINE      CODE     ---       #270
      00FF136BH   LINE      CODE     ---       #273
      00FF138EH   LINE      CODE     ---       #274
      00FF138EH   LINE      CODE     ---       #277
      00FF139AH   LINE      CODE     ---       #278
      00FF13A8H   LINE      CODE     ---       #279
      00FF13AAH   LINE      CODE     ---       #280
      00FF13BAH   LINE      CODE     ---       #283
      00FF13C1H   LINE      CODE     ---       #284
      00FF13C5H   LINE      CODE     ---       #289
      00FF13CFH   LINE      CODE     ---       #290
      00FF13EAH   LINE      CODE     ---       #292
      00FF1407H   LINE      CODE     ---       #293
      00FF1416H   LINE      CODE     ---       #296
      00FF141EH   LINE      CODE     ---       #297
      00FF1434H   LINE      CODE     ---       #298
      00FF1446H   LINE      CODE     ---       #299
      00FF1453H   LINE      CODE     ---       #302
      00FF145DH   LINE      CODE     ---       #303
      00FF1469H   LINE      CODE     ---       #304
      00FF147FH   LINE      CODE     ---       #305
      ---         BLOCKEND  ---      ---       LVL=0

      00FF8719H   BLOCK     CODE     ---       LVL=0
      00FF8719H   LINE      CODE     ---       #308
      00FF8719H   LINE      CODE     ---       #380
      00FF8727H   LINE      CODE     ---       #493
      ---         BLOCKEND  ---      ---       LVL=0

      00FF8870H   BLOCK     CODE     ---       LVL=0
      00FF8870H   LINE      CODE     ---       #495
      00FF8870H   LINE      CODE     ---       #498
      ---         BLOCKEND  ---      ---       LVL=0

      00FF8871H   BLOCK     CODE     ---       LVL=0
      00FF8871H   LINE      CODE     ---       #500
      00FF8871H   LINE      CODE     ---       #503
      ---         BLOCKEND  ---      ---       LVL=0

      00FF7E92H   BLOCK     CODE     ---       LVL=0
      WR6         REGSYM    ---      INT       rfBand
      00FF7E92H   LINE      CODE     ---       #505
      00FF7E92H   LINE      CODE     ---       #506
      00FF7E92H   LINE      CODE     ---       #507
      00FF7E95H   LINE      CODE     ---       #510
      00FF7E9CH   LINE      CODE     ---       #511
      00FF7EA2H   LINE      CODE     ---       #513
      00FF7EB8H   LINE      CODE     ---       #514
      ---         BLOCKEND  ---      ---       LVL=0

      00FF3816H   BLOCK     CODE     ---       LVL=0
      WR6         REGSYM    ---      INT       type
L251 LINKER/LOCATER V4.66.93.0                                                        01/04/2022  17:06:11  PAGE 143


      00FF3816H   LINE      CODE     ---       #516
      00FF3816H   LINE      CODE     ---       #517
      00FF3816H   LINE      CODE     ---       #534
      00FF381AH   LINE      CODE     ---       #536
      00FF383BH   LINE      CODE     ---       #540
      00FF3855H   LINE      CODE     ---       #541
      00FF386DH   LINE      CODE     ---       #542
      00FF3878H   LINE      CODE     ---       #543
      00FF3887H   LINE      CODE     ---       #544
      00FF3896H   LINE      CODE     ---       #546
      00FF38ACH   LINE      CODE     ---       #549
      00FF38BCH   LINE      CODE     ---       #551
      00FF38D2H   LINE      CODE     ---       #552
      00FF38E8H   LINE      CODE     ---       #563
      00FF38E8H   LINE      CODE     ---       #564
      ---         BLOCKEND  ---      ---       LVL=0

      ---         MODULE    ---      ---       hal_rt569mp_tcon
      00FF25AFH   PUBLIC    CODE     ---       HALTCON_Init
      00FF60CFH   PUBLIC    CODE     ---       HALTCON_PreTxTimeSet

      00FF25AFH   BLOCK     CODE     ---       LVL=0
      WR6         REGSYM    ---      INT       clkMode
      00FF25B3H   BLOCK     CODE     NEAR LAB  LVL=1
      R13         REGSYM    ---      BYTE      unitShift
      0000AD35H   SYMBOL    EDATA    WORD      txDelayTime
      WR14        REGSYM    ---      WORD      pllLockTime
      ---         BLOCKEND  ---      ---       LVL=1
      00FF25AFH   LINE      CODE     ---       #25
      00FF25B3H   LINE      CODE     ---       #28
      00FF25B3H   LINE      CODE     ---       #43
      00FF25C0H   LINE      CODE     ---       #44
      00FF25D5H   LINE      CODE     ---       #48
      00FF25DAH   LINE      CODE     ---       #49
      00FF25E0H   LINE      CODE     ---       #52
      00FF25E8H   LINE      CODE     ---       #55
      00FF25F0H   LINE      CODE     ---       #56
      00FF260EH   LINE      CODE     ---       #57
      00FF261AH   LINE      CODE     ---       #58
      00FF2629H   LINE      CODE     ---       #59
      00FF2644H   LINE      CODE     ---       #60
      00FF265FH   LINE      CODE     ---       #63
      00FF2667H   LINE      CODE     ---       #64
      00FF2673H   LINE      CODE     ---       #65
      00FF2680H   LINE      CODE     ---       #66
      00FF2696H   LINE      CODE     ---       #67
      00FF26A5H   LINE      CODE     ---       #68
      00FF26B3H   LINE      CODE     ---       #71
      00FF26C1H   LINE      CODE     ---       #72
      00FF26CFH   LINE      CODE     ---       #73
      00FF26E9H   LINE      CODE     ---       #76
      00FF26F7H   LINE      CODE     ---       #77
      00FF2705H   LINE      CODE     ---       #80
      00FF2711H   LINE      CODE     ---       #83
      00FF2711H   LINE      CODE     ---       #84
      ---         BLOCKEND  ---      ---       LVL=0

      00FF60CFH   BLOCK     CODE     ---       LVL=0
      WR14        REGSYM    ---      INT       dataBwIdx
      00FF60D3H   BLOCK     CODE     NEAR LAB  LVL=1
      R11         REGSYM    ---      BYTE      unitShift
      WR4         REGSYM    ---      WORD      mdmTxDelayTime
      WR12        REGSYM    ---      WORD      pllLockTime
      ---         BLOCKEND  ---      ---       LVL=1
      00FF60CFH   LINE      CODE     ---       #86
L251 LINKER/LOCATER V4.66.93.0                                                        01/04/2022  17:06:11  PAGE 144


      00FF60D3H   LINE      CODE     ---       #89
      00FF60D3H   LINE      CODE     ---       #105
      00FF60D8H   LINE      CODE     ---       #106
      00FF60DEH   LINE      CODE     ---       #109
      00FF60E6H   LINE      CODE     ---       #112
      00FF60F7H   LINE      CODE     ---       #120
      00FF6110H   LINE      CODE     ---       #123
      00FF6114H   LINE      CODE     ---       #124
      00FF612AH   LINE      CODE     ---       #126
      00FF6139H   LINE      CODE     ---       #129
      00FF6139H   LINE      CODE     ---       #130
      ---         BLOCKEND  ---      ---       LVL=0

      ---         MODULE    ---      ---       hal_rt569mp_para
      00FFF000H   PUBLIC    HCONST   ---       rfConfig
      00FFF0D0H   PUBLIC    HCONST   ---       pmuConfig
      00FFF1B8H   PUBLIC    HCONST   ---       rfTabSideBnadK
      00FFF569H   PUBLIC    HCONST   ---       phyConfig

      ---         MODULE    ---      ---       Ruci
      00FF357EH   PUBLIC    CODE     ---       RUCI_endianConvert
      0000AC1EH   PUBLIC    EDATA    BYTE      ?RUCI_endianConvert?BYTE

      00FF357EH   BLOCK     CODE     ---       LVL=0
      REG=3       REGSYM    ---      ---       pDataIn
      R15         REGSYM    ---      BYTE      paraNum
      REG=0       REGSYM    ---      ---       pTypeMapIn
      0000AC25H   SYMBOL    EDATA    ---       pElemNumMapIn
      00FF3582H   BLOCK     CODE     NEAR LAB  LVL=1
      R14         REGSYM    ---      BYTE      paraIdx
      0000AC29H   SYMBOL    EDATA    BYTE      elemIdx
      0000AC2AH   SYMBOL    EDATA    ---       pDwTemp
      REG=3       REGSYM    ---      ---       pWTemp
      REG=6       REGSYM    ---      ---       pData
      0000AC2EH   SYMBOL    EDATA    ---       pTypeMap
      0000AC32H   SYMBOL    EDATA    ---       pElemNumMap
      ---         BLOCKEND  ---      ---       LVL=1
      00FF357EH   LINE      CODE     ---       #23
      00FF3582H   LINE      CODE     ---       #29
      00FF3582H   LINE      CODE     ---       #37
      00FF3584H   LINE      CODE     ---       #38
      00FF3588H   LINE      CODE     ---       #39
      00FF3590H   LINE      CODE     ---       #41
      00FF3595H   LINE      CODE     ---       #43
      00FF35ACH   LINE      CODE     ---       #45
      00FF35ACH   LINE      CODE     ---       #48
      00FF35AFH   LINE      CODE     ---       #57
      00FF35B6H   LINE      CODE     ---       #58
      00FF35BEH   LINE      CODE     ---       #59
      00FF35C6H   LINE      CODE     ---       #60
      00FF35CEH   LINE      CODE     ---       #61
      00FF35D1H   LINE      CODE     ---       #62
      00FF35D9H   LINE      CODE     ---       #63
      00FF35E1H   LINE      CODE     ---       #64
      00FF35E9H   LINE      CODE     ---       #66
      00FF35EBH   LINE      CODE     ---       #67
      00FF3601H   LINE      CODE     ---       #68
      00FF3603H   LINE      CODE     ---       #70
      00FF3603H   LINE      CODE     ---       #72
      00FF360AH   LINE      CODE     ---       #74
      00FF360CH   LINE      CODE     ---       #75
      00FF361AH   LINE      CODE     ---       #76
      00FF361CH   LINE      CODE     ---       #77
      00FF3632H   LINE      CODE     ---       #78
      00FF3634H   LINE      CODE     ---       #80
L251 LINKER/LOCATER V4.66.93.0                                                        01/04/2022  17:06:11  PAGE 145


      00FF3634H   LINE      CODE     ---       #82
      00FF363FH   LINE      CODE     ---       #83
      00FF3641H   LINE      CODE     ---       #85
      00FF3641H   LINE      CODE     ---       #86
      00FF3645H   LINE      CODE     ---       #87
      00FF3645H   LINE      CODE     ---       #88
      00FF3645H   LINE      CODE     ---       #90
      00FF364FH   LINE      CODE     ---       #91
      00FF3659H   LINE      CODE     ---       #92
      00FF3662H   LINE      CODE     ---       #93
      ---         BLOCKEND  ---      ---       LVL=0

      ---         MODULE    ---      ---       Ruci_Pci15p4MacCmd
      00FFFD12H   PUBLIC    HCONST   ---       Ruci_ElmtType_InitiateZigbee
      00FFFD15H   PUBLIC    HCONST   ---       Ruci_ElmtNum_InitiateZigbee
      00FFFD18H   PUBLIC    HCONST   ---       Ruci_ElmtType_Set15p4AddressFilter
      00FFFD20H   PUBLIC    HCONST   ---       Ruci_ElmtNum_Set15p4AddressFilter
      00FFFD28H   PUBLIC    HCONST   ---       Ruci_ElmtType_Set15p4MacPib
      00FFFD32H   PUBLIC    HCONST   ---       Ruci_ElmtNum_Set15p4MacPib
      00FFFD3CH   PUBLIC    HCONST   ---       Ruci_ElmtType_Set15p4AutoAck
      00FFFD40H   PUBLIC    HCONST   ---       Ruci_ElmtNum_Set15p4AutoAck
      00FFFD44H   PUBLIC    HCONST   ---       Ruci_ElmtType_Set15p4PhyPib
      00FFFD4BH   PUBLIC    HCONST   ---       Ruci_ElmtNum_Set15p4PhyPib
      00FFFD52H   PUBLIC    HCONST   ---       Ruci_ElmtType_Set15p4PendingBit
      00FFFD56H   PUBLIC    HCONST   ---       Ruci_ElmtNum_Set15p4PendingBit

      ---         MODULE    ---      ---       Ruci_PciBleCmd
      00FFFF21H   PUBLIC    HCONST   ---       Ruci_ElmtType_InitiateBle
      00FFFF24H   PUBLIC    HCONST   ---       Ruci_ElmtNum_InitiateBle
      00FFFF27H   PUBLIC    HCONST   ---       Ruci_ElmtType_SetBleModem
      00FFFF2CH   PUBLIC    HCONST   ---       Ruci_ElmtNum_SetBleModem
      00FFFF31H   PUBLIC    HCONST   ---       Ruci_ElmtType_SetBleMac
      00FFFF38H   PUBLIC    HCONST   ---       Ruci_ElmtNum_SetBleMac

      ---         MODULE    ---      ---       Ruci_PciCommonCmd
      00FFFBFFH   PUBLIC    HCONST   ---       Ruci_ElmtType_SetRfFrequency
      00FFFC03H   PUBLIC    HCONST   ---       Ruci_ElmtNum_SetRfFrequency
      00FFFC07H   PUBLIC    HCONST   ---       Ruci_ElmtType_SetRxEnable
      00FFFC0BH   PUBLIC    HCONST   ---       Ruci_ElmtNum_SetRxEnable
      00FFFC0FH   PUBLIC    HCONST   ---       Ruci_ElmtType_SetSingleToneMode
      00FFFC13H   PUBLIC    HCONST   ---       Ruci_ElmtNum_SetSingleToneMode
      00FFFC17H   PUBLIC    HCONST   ---       Ruci_ElmtType_GetCrcCount
      00FFFC1AH   PUBLIC    HCONST   ---       Ruci_ElmtNum_GetCrcCount
      00FFFC1DH   PUBLIC    HCONST   ---       Ruci_ElmtType_SetRfSleep
      00FFFC21H   PUBLIC    HCONST   ---       Ruci_ElmtNum_SetRfSleep
      00FFFC25H   PUBLIC    HCONST   ---       Ruci_ElmtType_SetRfIdle
      00FFFC28H   PUBLIC    HCONST   ---       Ruci_ElmtNum_SetRfIdle
      00FFFC2BH   PUBLIC    HCONST   ---       Ruci_ElmtType_SetDutyCycle
      00FFFC30H   PUBLIC    HCONST   ---       Ruci_ElmtNum_SetDutyCycle
      00FFFC35H   PUBLIC    HCONST   ---       Ruci_ElmtType_GetRssi
      00FFFC38H   PUBLIC    HCONST   ---       Ruci_ElmtNum_GetRssi
      00FFFC3BH   PUBLIC    HCONST   ---       Ruci_ElmtType_GetPhyStatus
      00FFFC3EH   PUBLIC    HCONST   ---       Ruci_ElmtNum_GetPhyStatus
      00FFFC41H   PUBLIC    HCONST   ---       Ruci_ElmtType_SetClockMode
      00FFFC47H   PUBLIC    HCONST   ---       Ruci_ElmtNum_SetClockMode
      00FFFC4DH   PUBLIC    HCONST   ---       Ruci_ElmtType_SetRfbAutoState
      00FFFC51H   PUBLIC    HCONST   ---       Ruci_ElmtNum_SetRfbAutoState
      00FFFC55H   PUBLIC    HCONST   ---       Ruci_ElmtType_SetRfeSecurity
      00FFFC5AH   PUBLIC    HCONST   ---       Ruci_ElmtNum_SetRfeSecurity
      00FFFC5FH   PUBLIC    HCONST   ---       Ruci_ElmtType_SetRfeTxEnable
      00FFFC6DH   PUBLIC    HCONST   ---       Ruci_ElmtNum_SetRfeTxEnable
      00FFFC7BH   PUBLIC    HCONST   ---       Ruci_ElmtType_SetRfeTxDisable
      00FFFC7EH   PUBLIC    HCONST   ---       Ruci_ElmtNum_SetRfeTxDisable
      00FFFC81H   PUBLIC    HCONST   ---       Ruci_ElmtType_SetRfeRxEnable
      00FFFC8EH   PUBLIC    HCONST   ---       Ruci_ElmtNum_SetRfeRxEnable
L251 LINKER/LOCATER V4.66.93.0                                                        01/04/2022  17:06:11  PAGE 146


      00FFFC9BH   PUBLIC    HCONST   ---       Ruci_ElmtType_SetRfeRxDisable
      00FFFC9EH   PUBLIC    HCONST   ---       Ruci_ElmtNum_SetRfeRxDisable
      00FFFCA1H   PUBLIC    HCONST   ---       Ruci_ElmtType_SetRfeMode
      00FFFCA5H   PUBLIC    HCONST   ---       Ruci_ElmtNum_SetRfeMode

      ---         MODULE    ---      ---       Ruci_PciData
      00FFFF3FH   PUBLIC    HCONST   ---       Ruci_ElmtType_SetTxControlField
      00FFFF44H   PUBLIC    HCONST   ---       Ruci_ElmtNum_SetTxControlField
      00FFFF49H   PUBLIC    HCONST   ---       Ruci_ElmtType_RxControlField
      00FFFF4FH   PUBLIC    HCONST   ---       Ruci_ElmtNum_RxControlField

      ---         MODULE    ---      ---       Ruci_PciEvent
      00FFFD5AH   PUBLIC    HCONST   ---       Ruci_ElmtType_CnfEvent
      00FFFD60H   PUBLIC    HCONST   ---       Ruci_ElmtNum_CnfEvent
      00FFFD66H   PUBLIC    HCONST   ---       Ruci_ElmtType_GetRegEvent
      00FFFD6AH   PUBLIC    HCONST   ---       Ruci_ElmtNum_GetRegEvent
      00FFFD6EH   PUBLIC    HCONST   ---       Ruci_ElmtType_GetCrcReportEvent
      00FFFD73H   PUBLIC    HCONST   ---       Ruci_ElmtNum_GetCrcReportEvent
      00FFFD78H   PUBLIC    HCONST   ---       Ruci_ElmtType_DtmBurstTxDoneEvent
      00FFFD7BH   PUBLIC    HCONST   ---       Ruci_ElmtNum_DtmBurstTxDoneEvent
      00FFFD7EH   PUBLIC    HCONST   ---       Ruci_ElmtType_GetRssiEvent
      00FFFD82H   PUBLIC    HCONST   ---       Ruci_ElmtNum_GetRssiEvent
      00FFFD86H   PUBLIC    HCONST   ---       Ruci_ElmtType_GetPhyStatusEvent
      00FFFD90H   PUBLIC    HCONST   ---       Ruci_ElmtNum_GetPhyStatusEvent

      ---         MODULE    ---      ---       Ruci_PciFskCmd
      00FFFE85H   PUBLIC    HCONST   ---       Ruci_ElmtType_InitiateFsk
      00FFFE89H   PUBLIC    HCONST   ---       Ruci_ElmtNum_InitiateFsk
      00FFFE8DH   PUBLIC    HCONST   ---       Ruci_ElmtType_SetFskModem
      00FFFE92H   PUBLIC    HCONST   ---       Ruci_ElmtNum_SetFskModem
      00FFFE97H   PUBLIC    HCONST   ---       Ruci_ElmtType_SetFskMac
      00FFFE9CH   PUBLIC    HCONST   ---       Ruci_ElmtNum_SetFskMac
      00FFFEA1H   PUBLIC    HCONST   ---       Ruci_ElmtType_SetFskPreamble
      00FFFEA5H   PUBLIC    HCONST   ---       Ruci_ElmtNum_SetFskPreamble
      00FFFEA9H   PUBLIC    HCONST   ---       Ruci_ElmtType_SetFskSfd
      00FFFEADH   PUBLIC    HCONST   ---       Ruci_ElmtNum_SetFskSfd

      ---         MODULE    ---      ---       Ruci_PciOqpskCmd
      00FFFF01H   PUBLIC    HCONST   ---       Ruci_ElmtType_InitiateOqpsk
      00FFFF04H   PUBLIC    HCONST   ---       Ruci_ElmtNum_InitiateOqpsk
      00FFFF07H   PUBLIC    HCONST   ---       Ruci_ElmtType_SetOqpskModem
      00FFFF0BH   PUBLIC    HCONST   ---       Ruci_ElmtNum_SetOqpskModem
      00FFFF0FH   PUBLIC    HCONST   ---       Ruci_ElmtType_SetOqpskMac
      00FFFF14H   PUBLIC    HCONST   ---       Ruci_ElmtNum_SetOqpskMac
      00FFFF19H   PUBLIC    HCONST   ---       Ruci_ElmtType_SetOqpskExtraPreamble
      00FFFF1DH   PUBLIC    HCONST   ---       Ruci_ElmtNum_SetOqpskExtraPreamble

      ---         MODULE    ---      ---       Ruci_PciSlinkCmd
      00FFFEB1H   PUBLIC    HCONST   ---       Ruci_ElmtType_InitiateSlink
      00FFFEB4H   PUBLIC    HCONST   ---       Ruci_ElmtNum_InitiateSlink
      00FFFEB7H   PUBLIC    HCONST   ---       Ruci_ElmtType_SetSlinkModem
      00FFFEBCH   PUBLIC    HCONST   ---       Ruci_ElmtNum_SetSlinkModem
      00FFFEC1H   PUBLIC    HCONST   ---       Ruci_ElmtType_SetSlinkCad
      00FFFEC8H   PUBLIC    HCONST   ---       Ruci_ElmtNum_SetSlinkCad
      00FFFECFH   PUBLIC    HCONST   ---       Ruci_ElmtType_SetSlinkCmnPara
      00FFFED5H   PUBLIC    HCONST   ---       Ruci_ElmtNum_SetSlinkCmnPara

      ---         MODULE    ---      ---       Ruci_CmnEvent
      00FFFD9AH   PUBLIC    HCONST   ---       Ruci_ElmtType_CmnCnfEvent
      00FFFDA0H   PUBLIC    HCONST   ---       Ruci_ElmtNum_CmnCnfEvent
      00FFFDA6H   PUBLIC    HCONST   ---       Ruci_ElmtType_GetFwVerEvent
      00FFFDADH   PUBLIC    HCONST   ---       Ruci_ElmtNum_GetFwVerEvent
      00FFFDB4H   PUBLIC    HCONST   ---       Ruci_ElmtType_SetCalibrationEnableEvent
      00FFFDBBH   PUBLIC    HCONST   ---       Ruci_ElmtNum_SetCalibrationEnableEvent
      00FFFDC2H   PUBLIC    HCONST   ---       Ruci_ElmtType_GetTemperatureRptEvent
L251 LINKER/LOCATER V4.66.93.0                                                        01/04/2022  17:06:11  PAGE 147


      00FFFDC7H   PUBLIC    HCONST   ---       Ruci_ElmtNum_GetTemperatureRptEvent
      00FFFDCCH   PUBLIC    HCONST   ---       Ruci_ElmtType_GetVoltageRptEvent
      00FFFDD1H   PUBLIC    HCONST   ---       Ruci_ElmtNum_GetVoltageRptEvent

      ---         MODULE    ---      ---       Ruci_CmnHalCmd
      00FFFDD6H   PUBLIC    HCONST   ---       Ruci_ElmtType_SetAgc
      00FFFDDDH   PUBLIC    HCONST   ---       Ruci_ElmtNum_SetAgc
      00FFFDE4H   PUBLIC    HCONST   ---       Ruci_ElmtType_SetCalibrationEnable
      00FFFDE8H   PUBLIC    HCONST   ---       Ruci_ElmtNum_SetCalibrationEnable
      00FFFDECH   PUBLIC    HCONST   ---       Ruci_ElmtType_SetCalibrationSetting
      00FFFDF4H   PUBLIC    HCONST   ---       Ruci_ElmtNum_SetCalibrationSetting
      00FFFDFCH   PUBLIC    HCONST   ---       Ruci_ElmtType_SetTxPower
      00FFFE01H   PUBLIC    HCONST   ---       Ruci_ElmtNum_SetTxPower
      00FFFE06H   PUBLIC    HCONST   ---       Ruci_ElmtType_GetTemperatureRpt
      00FFFE09H   PUBLIC    HCONST   ---       Ruci_ElmtNum_GetTemperatureRpt
      00FFFE0CH   PUBLIC    HCONST   ---       Ruci_ElmtType_GetVoltageRpt
      00FFFE0FH   PUBLIC    HCONST   ---       Ruci_ElmtNum_GetVoltageRpt

      ---         MODULE    ---      ---       Ruci_CmnSysCmd
      00FFFF62H   PUBLIC    HCONST   ---       Ruci_ElmtType_GetFwVer
      00FFFF65H   PUBLIC    HCONST   ---       Ruci_ElmtNum_GetFwVer

      ---         MODULE    ---      ---       ?C?INITEDATA
      00FF71FEH   PUBLIC    CODE     ---       ?C?INITEDATA

      ---         MODULE    ---      ---       ?C?LMUL
      00FF65B2H   PUBLIC    CODE     ---       ?C?LMUL

      ---         MODULE    ---      ---       ?C?ULDIV
      00FF65C5H   PUBLIC    CODE     NEAR LAB  ?C?ULDIV
      00FF65C3H   PUBLIC    CODE     NEAR LAB  ?C?ULIDIV

      ---         MODULE    ---      ---       hmemcpy
      00FF8144H   PUBLIC    CODE     ---       hmemcpy?_

      ---         MODULE    ---      ---       ?C?INITEDATA_END
      00FFFD10H   PUBLIC    HCONST   WORD      ?C?INITEDATA_END

Program Size: data=16.0 edata+hdata=4158 xdata=0 const=3946 code=34930
L251 RUN COMPLETE.  0 WARNING(S),  0 ERROR(S)
